
crackme.exe:     file format pei-x86-64


Disassembly of section .text:

0000000140001000 <.text>:
   140001000:	48 8d 05 29 46 00 00 	lea    rax,[rip+0x4629]        # 0x140005630
   140001007:	c3                   	ret    
   140001008:	cc                   	int3   
   140001009:	cc                   	int3   
   14000100a:	cc                   	int3   
   14000100b:	cc                   	int3   
   14000100c:	cc                   	int3   
   14000100d:	cc                   	int3   
   14000100e:	cc                   	int3   
   14000100f:	cc                   	int3   
   140001010:	48 8d 05 11 46 00 00 	lea    rax,[rip+0x4611]        # 0x140005628
   140001017:	c3                   	ret    
   140001018:	cc                   	int3   
   140001019:	cc                   	int3   
   14000101a:	cc                   	int3   
   14000101b:	cc                   	int3   
   14000101c:	cc                   	int3   
   14000101d:	cc                   	int3   
   14000101e:	cc                   	int3   
   14000101f:	cc                   	int3   
   140001020:	48 89 4c 24 08       	mov    QWORD PTR [rsp+0x8],rcx
   140001025:	48 89 54 24 10       	mov    QWORD PTR [rsp+0x10],rdx
   14000102a:	4c 89 44 24 18       	mov    QWORD PTR [rsp+0x18],r8
   14000102f:	4c 89 4c 24 20       	mov    QWORD PTR [rsp+0x20],r9
   140001034:	53                   	push   rbx
   140001035:	56                   	push   rsi
   140001036:	57                   	push   rdi
   140001037:	48 83 ec 30          	sub    rsp,0x30
   14000103b:	48 8b f9             	mov    rdi,rcx
   14000103e:	48 8d 74 24 58       	lea    rsi,[rsp+0x58]
   140001043:	b9 01 00 00 00       	mov    ecx,0x1
   140001048:	ff 15 3a 21 00 00    	call   QWORD PTR [rip+0x213a]        # 0x140003188
   14000104e:	48 8b d8             	mov    rbx,rax
   140001051:	e8 aa ff ff ff       	call   0x140001000
   140001056:	45 33 c9             	xor    r9d,r9d
   140001059:	48 89 74 24 20       	mov    QWORD PTR [rsp+0x20],rsi
   14000105e:	4c 8b c7             	mov    r8,rdi
   140001061:	48 8b d3             	mov    rdx,rbx
   140001064:	48 8b 08             	mov    rcx,QWORD PTR [rax]
   140001067:	ff 15 13 21 00 00    	call   QWORD PTR [rip+0x2113]        # 0x140003180
   14000106d:	48 83 c4 30          	add    rsp,0x30
   140001071:	5f                   	pop    rdi
   140001072:	5e                   	pop    rsi
   140001073:	5b                   	pop    rbx
   140001074:	c3                   	ret    
   140001075:	cc                   	int3   
   140001076:	cc                   	int3   
   140001077:	cc                   	int3   
   140001078:	cc                   	int3   
   140001079:	cc                   	int3   
   14000107a:	cc                   	int3   
   14000107b:	cc                   	int3   
   14000107c:	cc                   	int3   
   14000107d:	cc                   	int3   
   14000107e:	cc                   	int3   
   14000107f:	cc                   	int3   
   140001080:	48 89 4c 24 08       	mov    QWORD PTR [rsp+0x8],rcx
   140001085:	48 89 54 24 10       	mov    QWORD PTR [rsp+0x10],rdx
   14000108a:	4c 89 44 24 18       	mov    QWORD PTR [rsp+0x18],r8
   14000108f:	4c 89 4c 24 20       	mov    QWORD PTR [rsp+0x20],r9
   140001094:	53                   	push   rbx
   140001095:	56                   	push   rsi
   140001096:	57                   	push   rdi
   140001097:	48 83 ec 30          	sub    rsp,0x30
   14000109b:	48 8b f9             	mov    rdi,rcx
   14000109e:	48 8d 74 24 58       	lea    rsi,[rsp+0x58]
   1400010a3:	33 c9                	xor    ecx,ecx
   1400010a5:	ff 15 dd 20 00 00    	call   QWORD PTR [rip+0x20dd]        # 0x140003188
   1400010ab:	48 8b d8             	mov    rbx,rax
   1400010ae:	e8 5d ff ff ff       	call   0x140001010
   1400010b3:	45 33 c9             	xor    r9d,r9d
   1400010b6:	48 89 74 24 20       	mov    QWORD PTR [rsp+0x20],rsi
   1400010bb:	4c 8b c7             	mov    r8,rdi
   1400010be:	48 8b d3             	mov    rdx,rbx
   1400010c1:	48 8b 08             	mov    rcx,QWORD PTR [rax]
   1400010c4:	48 83 c9 01          	or     rcx,0x1
   1400010c8:	ff 15 c2 20 00 00    	call   QWORD PTR [rip+0x20c2]        # 0x140003190
   1400010ce:	48 83 c4 30          	add    rsp,0x30
   1400010d2:	5f                   	pop    rdi
   1400010d3:	5e                   	pop    rsi
   1400010d4:	5b                   	pop    rbx
   1400010d5:	c3                   	ret    
   1400010d6:	cc                   	int3   
   1400010d7:	cc                   	int3   
   1400010d8:	cc                   	int3   
   1400010d9:	cc                   	int3   
   1400010da:	cc                   	int3   
   1400010db:	cc                   	int3   
   1400010dc:	cc                   	int3   
   1400010dd:	cc                   	int3   
   1400010de:	cc                   	int3   
   1400010df:	cc                   	int3   
   1400010e0:	48 89 5c 24 08       	mov    QWORD PTR [rsp+0x8],rbx
   1400010e5:	48 89 74 24 10       	mov    QWORD PTR [rsp+0x10],rsi
   1400010ea:	48 89 7c 24 18       	mov    QWORD PTR [rsp+0x18],rdi
   1400010ef:	4c 89 6c 24 20       	mov    QWORD PTR [rsp+0x20],r13
   1400010f4:	55                   	push   rbp
   1400010f5:	41 56                	push   r14
   1400010f7:	41 57                	push   r15
   1400010f9:	48 8d 6c 24 b9       	lea    rbp,[rsp-0x47]
   1400010fe:	48 81 ec 90 00 00 00 	sub    rsp,0x90
   140001105:	48 8b 05 fc 3e 00 00 	mov    rax,QWORD PTR [rip+0x3efc]        # 0x140005008
   14000110c:	48 33 c4             	xor    rax,rsp
   14000110f:	48 89 45 3f          	mov    QWORD PTR [rbp+0x3f],rax
   140001113:	66 0f 6f 05 65 22 00 	movdqa xmm0,XMMWORD PTR [rip+0x2265]        # 0x140003380
   14000111a:	00 
   14000111b:	33 db                	xor    ebx,ebx
   14000111d:	66 0f 6f 0d 6b 22 00 	movdqa xmm1,XMMWORD PTR [rip+0x226b]        # 0x140003390
   140001124:	00 
   140001125:	48 8b f9             	mov    rdi,rcx
   140001128:	f3 0f 7f 45 ff       	movdqu XMMWORD PTR [rbp-0x1],xmm0
   14000112d:	33 c9                	xor    ecx,ecx
   14000112f:	c7 45 2f 6a 36 37 4e 	mov    DWORD PTR [rbp+0x2f],0x4e37366a
   140001136:	66 0f 6f 05 22 22 00 	movdqa xmm0,XMMWORD PTR [rip+0x2222]        # 0x140003360
   14000113d:	00 
   14000113e:	f3 0f 7f 45 1f       	movdqu XMMWORD PTR [rbp+0x1f],xmm0
   140001143:	c7 45 33 62 4d 78 73 	mov    DWORD PTR [rbp+0x33],0x73784d62
   14000114a:	66 0f 6f 05 1e 22 00 	movdqa xmm0,XMMWORD PTR [rip+0x221e]        # 0x140003370
   140001151:	00 
   140001152:	f3 0f 7f 45 d7       	movdqu XMMWORD PTR [rbp-0x29],xmm0
   140001157:	c7 45 37 6b 6e 51 71 	mov    DWORD PTR [rbp+0x37],0x71516e6b
   14000115e:	f3 0f 7f 4d 0f       	movdqu XMMWORD PTR [rbp+0xf],xmm1
   140001163:	66 c7 45 3b 63 49    	mov    WORD PTR [rbp+0x3b],0x4963
   140001169:	c7 45 e7 41 44 52 4e 	mov    DWORD PTR [rbp-0x19],0x4e524441
   140001170:	c7 45 eb 43 42 4c 48 	mov    DWORD PTR [rbp-0x15],0x484c4243
   140001177:	66 c7 45 ef 5a 55    	mov    WORD PTR [rbp-0x11],0x555a
   14000117d:	0f 1f 00             	nop    DWORD PTR [rax]
   140001180:	0f b6 04 39          	movzx  eax,BYTE PTR [rcx+rdi*1]
   140001184:	3c 0a                	cmp    al,0xa
   140001186:	74 23                	je     0x1400011ab
   140001188:	44 8d 40 bf          	lea    r8d,[rax-0x41]
   14000118c:	8d 50 d0             	lea    edx,[rax-0x30]
   14000118f:	2c 61                	sub    al,0x61
   140001191:	3c 19                	cmp    al,0x19
   140001193:	76 0b                	jbe    0x1400011a0
   140001195:	41 80 f8 19          	cmp    r8b,0x19
   140001199:	76 05                	jbe    0x1400011a0
   14000119b:	80 fa 09             	cmp    dl,0x9
   14000119e:	77 02                	ja     0x1400011a2
   1400011a0:	ff c3                	inc    ebx
   1400011a2:	48 ff c1             	inc    rcx
   1400011a5:	48 83 f9 11          	cmp    rcx,0x11
   1400011a9:	7c d5                	jl     0x140001180
   1400011ab:	b9 11 00 00 00       	mov    ecx,0x11
   1400011b0:	ff 15 fa 1e 00 00    	call   QWORD PTR [rip+0x1efa]        # 0x1400030b0
   1400011b6:	8b 75 f7             	mov    esi,DWORD PTR [rbp-0x9]
   1400011b9:	41 bb 02 00 00 00    	mov    r11d,0x2
   1400011bf:	4c 8b e8             	mov    r13,rax
   1400011c2:	45 33 ff             	xor    r15d,r15d
   1400011c5:	4c 8d 70 02          	lea    r14,[rax+0x2]
   1400011c9:	0f 1f 80 00 00 00 00 	nop    DWORD PTR [rax+0x0]
   1400011d0:	45 33 d2             	xor    r10d,r10d
   1400011d3:	33 c9                	xor    ecx,ecx
   1400011d5:	66 66 66 0f 1f 84 00 	data16 data16 nop WORD PTR [rax+rax*1+0x0]
   1400011dc:	00 00 00 00 
   1400011e0:	44 0f b6 44 0d ff    	movzx  r8d,BYTE PTR [rbp+rcx*1-0x1]
   1400011e6:	41 8d 40 9f          	lea    eax,[r8-0x61]
   1400011ea:	41 8d 50 bf          	lea    edx,[r8-0x41]
   1400011ee:	45 8d 48 d0          	lea    r9d,[r8-0x30]
   1400011f2:	3c 19                	cmp    al,0x19
   1400011f4:	76 0b                	jbe    0x140001201
   1400011f6:	80 fa 19             	cmp    dl,0x19
   1400011f9:	76 06                	jbe    0x140001201
   1400011fb:	41 80 f9 09          	cmp    r9b,0x9
   1400011ff:	77 10                	ja     0x140001211
   140001201:	41 8d 43 fe          	lea    eax,[r11-0x2]
   140001205:	99                   	cdq    
   140001206:	f7 fb                	idiv   ebx
   140001208:	48 63 c2             	movsxd rax,edx
   14000120b:	44 3a 04 38          	cmp    r8b,BYTE PTR [rax+rdi*1]
   14000120f:	74 0e                	je     0x14000121f
   140001211:	41 ff c2             	inc    r10d
   140001214:	48 ff c1             	inc    rcx
   140001217:	48 83 f9 3e          	cmp    rcx,0x3e
   14000121b:	7c c3                	jl     0x1400011e0
   14000121d:	eb 03                	jmp    0x140001222
   14000121f:	41 8b f2             	mov    esi,r10d
   140001222:	41 8d 04 37          	lea    eax,[r15+rsi*1]
   140001226:	45 33 d2             	xor    r10d,r10d
   140001229:	c1 e0 10             	shl    eax,0x10
   14000122c:	99                   	cdq    
   14000122d:	44 8b c0             	mov    r8d,eax
   140001230:	b8 4f ec c4 4e       	mov    eax,0x4ec4ec4f
   140001235:	44 33 c2             	xor    r8d,edx
   140001238:	44 2b c2             	sub    r8d,edx
   14000123b:	41 f7 e8             	imul   r8d
   14000123e:	c1 fa 03             	sar    edx,0x3
   140001241:	8b ca                	mov    ecx,edx
   140001243:	c1 e9 1f             	shr    ecx,0x1f
   140001246:	03 d1                	add    edx,ecx
   140001248:	6b ca 1a             	imul   ecx,edx,0x1a
   14000124b:	44 2b c1             	sub    r8d,ecx
   14000124e:	49 63 c0             	movsxd rax,r8d
   140001251:	0f b6 4c 05 d7       	movzx  ecx,BYTE PTR [rbp+rax*1-0x29]
   140001256:	41 88 4e fe          	mov    BYTE PTR [r14-0x2],cl
   14000125a:	33 c9                	xor    ecx,ecx
   14000125c:	0f 1f 40 00          	nop    DWORD PTR [rax+0x0]
   140001260:	44 0f b6 44 0d ff    	movzx  r8d,BYTE PTR [rbp+rcx*1-0x1]
   140001266:	41 8d 40 9f          	lea    eax,[r8-0x61]
   14000126a:	41 8d 50 bf          	lea    edx,[r8-0x41]
   14000126e:	45 8d 48 d0          	lea    r9d,[r8-0x30]
   140001272:	3c 19                	cmp    al,0x19
   140001274:	76 0b                	jbe    0x140001281
   140001276:	80 fa 19             	cmp    dl,0x19
   140001279:	76 06                	jbe    0x140001281
   14000127b:	41 80 f9 09          	cmp    r9b,0x9
   14000127f:	77 10                	ja     0x140001291
   140001281:	41 8d 43 ff          	lea    eax,[r11-0x1]
   140001285:	99                   	cdq    
   140001286:	f7 fb                	idiv   ebx
   140001288:	48 63 c2             	movsxd rax,edx
   14000128b:	44 3a 04 38          	cmp    r8b,BYTE PTR [rax+rdi*1]
   14000128f:	74 0e                	je     0x14000129f
   140001291:	41 ff c2             	inc    r10d
   140001294:	48 ff c1             	inc    rcx
   140001297:	48 83 f9 3e          	cmp    rcx,0x3e
   14000129b:	7c c3                	jl     0x140001260
   14000129d:	eb 03                	jmp    0x1400012a2
   14000129f:	41 8b f2             	mov    esi,r10d
   1400012a2:	8d 86 39 05 00 00    	lea    eax,[rsi+0x539]
   1400012a8:	45 33 d2             	xor    r10d,r10d
   1400012ab:	41 03 c7             	add    eax,r15d
   1400012ae:	c1 e0 10             	shl    eax,0x10
   1400012b1:	99                   	cdq    
   1400012b2:	44 8b c0             	mov    r8d,eax
   1400012b5:	b8 4f ec c4 4e       	mov    eax,0x4ec4ec4f
   1400012ba:	44 33 c2             	xor    r8d,edx
   1400012bd:	44 2b c2             	sub    r8d,edx
   1400012c0:	41 f7 e8             	imul   r8d
   1400012c3:	c1 fa 03             	sar    edx,0x3
   1400012c6:	8b ca                	mov    ecx,edx
   1400012c8:	c1 e9 1f             	shr    ecx,0x1f
   1400012cb:	03 d1                	add    edx,ecx
   1400012cd:	6b ca 1a             	imul   ecx,edx,0x1a
   1400012d0:	44 2b c1             	sub    r8d,ecx
   1400012d3:	49 63 c0             	movsxd rax,r8d
   1400012d6:	0f b6 4c 05 d7       	movzx  ecx,BYTE PTR [rbp+rax*1-0x29]
   1400012db:	41 88 4e ff          	mov    BYTE PTR [r14-0x1],cl
   1400012df:	33 c9                	xor    ecx,ecx
   1400012e1:	44 0f b6 44 0d ff    	movzx  r8d,BYTE PTR [rbp+rcx*1-0x1]
   1400012e7:	41 8d 40 9f          	lea    eax,[r8-0x61]
   1400012eb:	41 8d 50 bf          	lea    edx,[r8-0x41]
   1400012ef:	45 8d 48 d0          	lea    r9d,[r8-0x30]
   1400012f3:	3c 19                	cmp    al,0x19
   1400012f5:	76 0b                	jbe    0x140001302
   1400012f7:	80 fa 19             	cmp    dl,0x19
   1400012fa:	76 06                	jbe    0x140001302
   1400012fc:	41 80 f9 09          	cmp    r9b,0x9
   140001300:	77 0f                	ja     0x140001311
   140001302:	41 8b c3             	mov    eax,r11d
   140001305:	99                   	cdq    
   140001306:	f7 fb                	idiv   ebx
   140001308:	48 63 c2             	movsxd rax,edx
   14000130b:	44 3a 04 38          	cmp    r8b,BYTE PTR [rax+rdi*1]
   14000130f:	74 0e                	je     0x14000131f
   140001311:	41 ff c2             	inc    r10d
   140001314:	48 ff c1             	inc    rcx
   140001317:	48 83 f9 3e          	cmp    rcx,0x3e
   14000131b:	7c c4                	jl     0x1400012e1
   14000131d:	eb 03                	jmp    0x140001322
   14000131f:	41 8b f2             	mov    esi,r10d
   140001322:	8d 86 72 0a 00 00    	lea    eax,[rsi+0xa72]
   140001328:	45 33 d2             	xor    r10d,r10d
   14000132b:	41 03 c7             	add    eax,r15d
   14000132e:	c1 e0 10             	shl    eax,0x10
   140001331:	99                   	cdq    
   140001332:	44 8b c0             	mov    r8d,eax
   140001335:	b8 4f ec c4 4e       	mov    eax,0x4ec4ec4f
   14000133a:	44 33 c2             	xor    r8d,edx
   14000133d:	44 2b c2             	sub    r8d,edx
   140001340:	41 f7 e8             	imul   r8d
   140001343:	c1 fa 03             	sar    edx,0x3
   140001346:	8b ca                	mov    ecx,edx
   140001348:	c1 e9 1f             	shr    ecx,0x1f
   14000134b:	03 d1                	add    edx,ecx
   14000134d:	6b ca 1a             	imul   ecx,edx,0x1a
   140001350:	44 2b c1             	sub    r8d,ecx
   140001353:	49 63 c0             	movsxd rax,r8d
   140001356:	0f b6 4c 05 d7       	movzx  ecx,BYTE PTR [rbp+rax*1-0x29]
   14000135b:	41 88 0e             	mov    BYTE PTR [r14],cl
   14000135e:	33 c9                	xor    ecx,ecx
   140001360:	44 0f b6 44 0d ff    	movzx  r8d,BYTE PTR [rbp+rcx*1-0x1]
   140001366:	41 8d 40 9f          	lea    eax,[r8-0x61]
   14000136a:	41 8d 50 bf          	lea    edx,[r8-0x41]
   14000136e:	45 8d 48 d0          	lea    r9d,[r8-0x30]
   140001372:	3c 19                	cmp    al,0x19
   140001374:	76 0b                	jbe    0x140001381
   140001376:	80 fa 19             	cmp    dl,0x19
   140001379:	76 06                	jbe    0x140001381
   14000137b:	41 80 f9 09          	cmp    r9b,0x9
   14000137f:	77 10                	ja     0x140001391
   140001381:	41 8d 43 01          	lea    eax,[r11+0x1]
   140001385:	99                   	cdq    
   140001386:	f7 fb                	idiv   ebx
   140001388:	48 63 c2             	movsxd rax,edx
   14000138b:	44 3a 04 38          	cmp    r8b,BYTE PTR [rax+rdi*1]
   14000138f:	74 0e                	je     0x14000139f
   140001391:	41 ff c2             	inc    r10d
   140001394:	48 ff c1             	inc    rcx
   140001397:	48 83 f9 3e          	cmp    rcx,0x3e
   14000139b:	7c c3                	jl     0x140001360
   14000139d:	eb 03                	jmp    0x1400013a2
   14000139f:	41 8b f2             	mov    esi,r10d
   1400013a2:	8d 86 ab 0f 00 00    	lea    eax,[rsi+0xfab]
   1400013a8:	41 83 c3 04          	add    r11d,0x4
   1400013ac:	41 03 c7             	add    eax,r15d
   1400013af:	41 81 c7 e4 14 00 00 	add    r15d,0x14e4
   1400013b6:	c1 e0 10             	shl    eax,0x10
   1400013b9:	99                   	cdq    
   1400013ba:	44 8b c0             	mov    r8d,eax
   1400013bd:	b8 4f ec c4 4e       	mov    eax,0x4ec4ec4f
   1400013c2:	44 33 c2             	xor    r8d,edx
   1400013c5:	44 2b c2             	sub    r8d,edx
   1400013c8:	41 f7 e8             	imul   r8d
   1400013cb:	c1 fa 03             	sar    edx,0x3
   1400013ce:	8b ca                	mov    ecx,edx
   1400013d0:	c1 e9 1f             	shr    ecx,0x1f
   1400013d3:	03 d1                	add    edx,ecx
   1400013d5:	6b ca 1a             	imul   ecx,edx,0x1a
   1400013d8:	44 2b c1             	sub    r8d,ecx
   1400013db:	49 63 c0             	movsxd rax,r8d
   1400013de:	0f b6 4c 05 d7       	movzx  ecx,BYTE PTR [rbp+rax*1-0x29]
   1400013e3:	41 8d 43 fe          	lea    eax,[r11-0x2]
   1400013e7:	41 88 4e 01          	mov    BYTE PTR [r14+0x1],cl
   1400013eb:	49 83 c6 04          	add    r14,0x4
   1400013ef:	83 f8 10             	cmp    eax,0x10
   1400013f2:	0f 8c d8 fd ff ff    	jl     0x1400011d0
   1400013f8:	41 c6 45 10 00       	mov    BYTE PTR [r13+0x10],0x0
   1400013fd:	49 8b c5             	mov    rax,r13
   140001400:	48 8b 4d 3f          	mov    rcx,QWORD PTR [rbp+0x3f]
   140001404:	48 33 cc             	xor    rcx,rsp
   140001407:	e8 94 01 00 00       	call   0x1400015a0
   14000140c:	4c 8d 9c 24 90 00 00 	lea    r11,[rsp+0x90]
   140001413:	00 
   140001414:	49 8b 5b 20          	mov    rbx,QWORD PTR [r11+0x20]
   140001418:	49 8b 73 28          	mov    rsi,QWORD PTR [r11+0x28]
   14000141c:	49 8b 7b 30          	mov    rdi,QWORD PTR [r11+0x30]
   140001420:	4d 8b 6b 38          	mov    r13,QWORD PTR [r11+0x38]
   140001424:	49 8b e3             	mov    rsp,r11
   140001427:	41 5f                	pop    r15
   140001429:	41 5e                	pop    r14
   14000142b:	5d                   	pop    rbp
   14000142c:	c3                   	ret    
   14000142d:	cc                   	int3   
   14000142e:	cc                   	int3   
   14000142f:	cc                   	int3   
   140001430:	48 83 ec 68          	sub    rsp,0x68
   140001434:	48 8b 05 cd 3b 00 00 	mov    rax,QWORD PTR [rip+0x3bcd]        # 0x140005008
   14000143b:	48 33 c4             	xor    rax,rsp
   14000143e:	48 89 44 24 50       	mov    QWORD PTR [rsp+0x50],rax
   140001443:	48 8d 0d 16 1e 00 00 	lea    rcx,[rip+0x1e16]        # 0x140003260
   14000144a:	e8 d1 fb ff ff       	call   0x140001020
   14000144f:	41 b8 11 00 00 00    	mov    r8d,0x11
   140001455:	48 8d 54 24 20       	lea    rdx,[rsp+0x20]
   14000145a:	48 8d 0d 13 1e 00 00 	lea    rcx,[rip+0x1e13]        # 0x140003274
   140001461:	e8 1a fc ff ff       	call   0x140001080
   140001466:	85 c0                	test   eax,eax
   140001468:	75 15                	jne    0x14000147f
   14000146a:	48 8d 0d 0f 1e 00 00 	lea    rcx,[rip+0x1e0f]        # 0x140003280
   140001471:	e8 aa fb ff ff       	call   0x140001020
   140001476:	33 c9                	xor    ecx,ecx
   140001478:	ff 15 8a 1c 00 00    	call   QWORD PTR [rip+0x1c8a]        # 0x140003108
   14000147e:	cc                   	int3   
   14000147f:	48 89 5c 24 60       	mov    QWORD PTR [rsp+0x60],rbx
   140001484:	33 db                	xor    ebx,ebx
   140001486:	8b cb                	mov    ecx,ebx
   140001488:	0f 1f 84 00 00 00 00 	nop    DWORD PTR [rax+rax*1+0x0]
   14000148f:	00 
   140001490:	0f b6 44 0c 20       	movzx  eax,BYTE PTR [rsp+rcx*1+0x20]
   140001495:	3c 0a                	cmp    al,0xa
   140001497:	74 25                	je     0x1400014be
   140001499:	84 c0                	test   al,al
   14000149b:	74 21                	je     0x1400014be
   14000149d:	44 8d 40 bf          	lea    r8d,[rax-0x41]
   1400014a1:	8d 50 d0             	lea    edx,[rax-0x30]
   1400014a4:	2c 61                	sub    al,0x61
   1400014a6:	3c 19                	cmp    al,0x19
   1400014a8:	76 0b                	jbe    0x1400014b5
   1400014aa:	41 80 f8 19          	cmp    r8b,0x19
   1400014ae:	76 05                	jbe    0x1400014b5
   1400014b0:	80 fa 09             	cmp    dl,0x9
   1400014b3:	77 45                	ja     0x1400014fa
   1400014b5:	48 ff c1             	inc    rcx
   1400014b8:	48 83 f9 11          	cmp    rcx,0x11
   1400014bc:	7c d2                	jl     0x140001490
   1400014be:	48 8d 0d 2b 1e 00 00 	lea    rcx,[rip+0x1e2b]        # 0x1400032f0
   1400014c5:	e8 56 fb ff ff       	call   0x140001020
   1400014ca:	41 b8 11 00 00 00    	mov    r8d,0x11
   1400014d0:	48 8d 54 24 38       	lea    rdx,[rsp+0x38]
   1400014d5:	48 8d 0d 24 1e 00 00 	lea    rcx,[rip+0x1e24]        # 0x140003300
   1400014dc:	e8 9f fb ff ff       	call   0x140001080
   1400014e1:	85 c0                	test   eax,eax
   1400014e3:	75 2a                	jne    0x14000150f
   1400014e5:	48 8d 0d 1c 1e 00 00 	lea    rcx,[rip+0x1e1c]        # 0x140003308
   1400014ec:	e8 2f fb ff ff       	call   0x140001020
   1400014f1:	33 c9                	xor    ecx,ecx
   1400014f3:	ff 15 0f 1c 00 00    	call   QWORD PTR [rip+0x1c0f]        # 0x140003108
   1400014f9:	cc                   	int3   
   1400014fa:	48 8d 0d af 1d 00 00 	lea    rcx,[rip+0x1daf]        # 0x1400032b0
   140001501:	e8 1a fb ff ff       	call   0x140001020
   140001506:	33 c9                	xor    ecx,ecx
   140001508:	ff 15 fa 1b 00 00    	call   QWORD PTR [rip+0x1bfa]        # 0x140003108
   14000150e:	cc                   	int3   
   14000150f:	48 8d 4c 24 20       	lea    rcx,[rsp+0x20]
   140001514:	e8 c7 fb ff ff       	call   0x1400010e0
   140001519:	48 8d 4c 24 38       	lea    rcx,[rsp+0x38]
   14000151e:	48 2b c1             	sub    rax,rcx
   140001521:	0f 1f 40 00          	nop    DWORD PTR [rax+0x0]
   140001525:	66 66 66 0f 1f 84 00 	data16 data16 nop WORD PTR [rax+rax*1+0x0]
   14000152c:	00 00 00 00 
   140001530:	48 8d 54 24 38       	lea    rdx,[rsp+0x38]
   140001535:	48 03 d3             	add    rdx,rbx
   140001538:	0f b6 0a             	movzx  ecx,BYTE PTR [rdx]
   14000153b:	38 0c 10             	cmp    BYTE PTR [rax+rdx*1],cl
   14000153e:	75 0d                	jne    0x14000154d
   140001540:	48 ff c3             	inc    rbx
   140001543:	48 83 fb 10          	cmp    rbx,0x10
   140001547:	7c e7                	jl     0x140001530
   140001549:	b0 01                	mov    al,0x1
   14000154b:	eb 02                	jmp    0x14000154f
   14000154d:	32 c0                	xor    al,al
   14000154f:	84 c0                	test   al,al
   140001551:	48 8d 15 e8 1d 00 00 	lea    rdx,[rip+0x1de8]        # 0x140003340
   140001558:	48 8d 0d d1 1d 00 00 	lea    rcx,[rip+0x1dd1]        # 0x140003330
   14000155f:	48 0f 44 ca          	cmove  rcx,rdx
   140001563:	e8 b8 fa ff ff       	call   0x140001020
   140001568:	48 8b 5c 24 60       	mov    rbx,QWORD PTR [rsp+0x60]
   14000156d:	33 c0                	xor    eax,eax
   14000156f:	48 8b 4c 24 50       	mov    rcx,QWORD PTR [rsp+0x50]
   140001574:	48 33 cc             	xor    rcx,rsp
   140001577:	e8 24 00 00 00       	call   0x1400015a0
   14000157c:	48 83 c4 68          	add    rsp,0x68
   140001580:	c3                   	ret    
   140001581:	cc                   	int3   
   140001582:	cc                   	int3   
   140001583:	cc                   	int3   
   140001584:	cc                   	int3   
   140001585:	cc                   	int3   
   140001586:	cc                   	int3   
   140001587:	cc                   	int3   
   140001588:	cc                   	int3   
   140001589:	cc                   	int3   
   14000158a:	cc                   	int3   
   14000158b:	cc                   	int3   
   14000158c:	cc                   	int3   
   14000158d:	cc                   	int3   
   14000158e:	cc                   	int3   
   14000158f:	cc                   	int3   
   140001590:	cc                   	int3   
   140001591:	cc                   	int3   
   140001592:	cc                   	int3   
   140001593:	cc                   	int3   
   140001594:	cc                   	int3   
   140001595:	cc                   	int3   
   140001596:	66 66 0f 1f 84 00 00 	data16 nop WORD PTR [rax+rax*1+0x0]
   14000159d:	00 00 00 
   1400015a0:	48 3b 0d 61 3a 00 00 	cmp    rcx,QWORD PTR [rip+0x3a61]        # 0x140005008
   1400015a7:	75 10                	jne    0x1400015b9
   1400015a9:	48 c1 c1 10          	rol    rcx,0x10
   1400015ad:	66 f7 c1 ff ff       	test   cx,0xffff
   1400015b2:	75 01                	jne    0x1400015b5
   1400015b4:	c3                   	ret    
   1400015b5:	48 c1 c9 10          	ror    rcx,0x10
   1400015b9:	e9 aa 02 00 00       	jmp    0x140001868
   1400015be:	cc                   	int3   
   1400015bf:	cc                   	int3   
   1400015c0:	40 53                	rex push rbx
   1400015c2:	48 83 ec 20          	sub    rsp,0x20
   1400015c6:	b9 01 00 00 00       	mov    ecx,0x1
   1400015cb:	e8 b4 0b 00 00       	call   0x140002184
   1400015d0:	e8 e3 06 00 00       	call   0x140001cb8
   1400015d5:	8b c8                	mov    ecx,eax
   1400015d7:	e8 d8 0b 00 00       	call   0x1400021b4
   1400015dc:	e8 cb 06 00 00       	call   0x140001cac
   1400015e1:	8b d8                	mov    ebx,eax
   1400015e3:	e8 fc 0b 00 00       	call   0x1400021e4
   1400015e8:	b9 01 00 00 00       	mov    ecx,0x1
   1400015ed:	89 18                	mov    DWORD PTR [rax],ebx
   1400015ef:	e8 44 04 00 00       	call   0x140001a38
   1400015f4:	84 c0                	test   al,al
   1400015f6:	74 73                	je     0x14000166b
   1400015f8:	e8 2f 09 00 00       	call   0x140001f2c
   1400015fd:	48 8d 0d 64 09 00 00 	lea    rcx,[rip+0x964]        # 0x140001f68
   140001604:	e8 df 05 00 00       	call   0x140001be8
   140001609:	e8 a2 06 00 00       	call   0x140001cb0
   14000160e:	8b c8                	mov    ecx,eax
   140001610:	e8 7b 0b 00 00       	call   0x140002190
   140001615:	85 c0                	test   eax,eax
   140001617:	75 52                	jne    0x14000166b
   140001619:	e8 a2 06 00 00       	call   0x140001cc0
   14000161e:	e8 d1 06 00 00       	call   0x140001cf4
   140001623:	85 c0                	test   eax,eax
   140001625:	74 0c                	je     0x140001633
   140001627:	48 8d 0d 7e 06 00 00 	lea    rcx,[rip+0x67e]        # 0x140001cac
   14000162e:	e8 57 0b 00 00       	call   0x14000218a
   140001633:	e8 9c 06 00 00       	call   0x140001cd4
   140001638:	e8 97 06 00 00       	call   0x140001cd4
   14000163d:	e8 6a 06 00 00       	call   0x140001cac
   140001642:	8b c8                	mov    ecx,eax
   140001644:	e8 8f 0b 00 00       	call   0x1400021d8
   140001649:	e8 82 06 00 00       	call   0x140001cd0
   14000164e:	84 c0                	test   al,al
   140001650:	74 05                	je     0x140001657
   140001652:	e8 3f 0b 00 00       	call   0x140002196
   140001657:	e8 50 06 00 00       	call   0x140001cac
   14000165c:	e8 03 08 00 00       	call   0x140001e64
   140001661:	85 c0                	test   eax,eax
   140001663:	75 06                	jne    0x14000166b
   140001665:	48 83 c4 20          	add    rsp,0x20
   140001669:	5b                   	pop    rbx
   14000166a:	c3                   	ret    
   14000166b:	b9 07 00 00 00       	mov    ecx,0x7
   140001670:	e8 a3 06 00 00       	call   0x140001d18
   140001675:	cc                   	int3   
   140001676:	cc                   	int3   
   140001677:	cc                   	int3   
   140001678:	48 83 ec 28          	sub    rsp,0x28
   14000167c:	e8 57 06 00 00       	call   0x140001cd8
   140001681:	33 c0                	xor    eax,eax
   140001683:	48 83 c4 28          	add    rsp,0x28
   140001687:	c3                   	ret    
   140001688:	48 83 ec 28          	sub    rsp,0x28
   14000168c:	e8 2f 08 00 00       	call   0x140001ec0
   140001691:	e8 16 06 00 00       	call   0x140001cac
   140001696:	8b c8                	mov    ecx,eax
   140001698:	48 83 c4 28          	add    rsp,0x28
   14000169c:	e9 3d 0b 00 00       	jmp    0x1400021de
   1400016a1:	cc                   	int3   
   1400016a2:	cc                   	int3   
   1400016a3:	cc                   	int3   
   1400016a4:	48 89 5c 24 08       	mov    QWORD PTR [rsp+0x8],rbx
   1400016a9:	48 89 74 24 10       	mov    QWORD PTR [rsp+0x10],rsi
   1400016ae:	57                   	push   rdi
   1400016af:	48 83 ec 30          	sub    rsp,0x30
   1400016b3:	b9 01 00 00 00       	mov    ecx,0x1
   1400016b8:	e8 2f 03 00 00       	call   0x1400019ec
   1400016bd:	84 c0                	test   al,al
   1400016bf:	0f 84 36 01 00 00    	je     0x1400017fb
   1400016c5:	40 32 f6             	xor    sil,sil
   1400016c8:	40 88 74 24 20       	mov    BYTE PTR [rsp+0x20],sil
   1400016cd:	e8 de 02 00 00       	call   0x1400019b0
   1400016d2:	8a d8                	mov    bl,al
   1400016d4:	8b 0d d6 3e 00 00    	mov    ecx,DWORD PTR [rip+0x3ed6]        # 0x1400055b0
   1400016da:	83 f9 01             	cmp    ecx,0x1
   1400016dd:	0f 84 23 01 00 00    	je     0x140001806
   1400016e3:	85 c9                	test   ecx,ecx
   1400016e5:	75 4a                	jne    0x140001731
   1400016e7:	c7 05 bf 3e 00 00 01 	mov    DWORD PTR [rip+0x3ebf],0x1        # 0x1400055b0
   1400016ee:	00 00 00 
   1400016f1:	48 8d 15 20 1b 00 00 	lea    rdx,[rip+0x1b20]        # 0x140003218
   1400016f8:	48 8d 0d 01 1b 00 00 	lea    rcx,[rip+0x1b01]        # 0x140003200
   1400016ff:	e8 a4 0a 00 00       	call   0x1400021a8
   140001704:	85 c0                	test   eax,eax
   140001706:	74 0a                	je     0x140001712
   140001708:	b8 ff 00 00 00       	mov    eax,0xff
   14000170d:	e9 d9 00 00 00       	jmp    0x1400017eb
   140001712:	48 8d 15 df 1a 00 00 	lea    rdx,[rip+0x1adf]        # 0x1400031f8
   140001719:	48 8d 0d c8 1a 00 00 	lea    rcx,[rip+0x1ac8]        # 0x1400031e8
   140001720:	e8 7d 0a 00 00       	call   0x1400021a2
   140001725:	c7 05 81 3e 00 00 02 	mov    DWORD PTR [rip+0x3e81],0x2        # 0x1400055b0
   14000172c:	00 00 00 
   14000172f:	eb 08                	jmp    0x140001739
   140001731:	40 b6 01             	mov    sil,0x1
   140001734:	40 88 74 24 20       	mov    BYTE PTR [rsp+0x20],sil
   140001739:	8a cb                	mov    cl,bl
   14000173b:	e8 1c 04 00 00       	call   0x140001b5c
   140001740:	e8 bb 05 00 00       	call   0x140001d00
   140001745:	48 8b d8             	mov    rbx,rax
   140001748:	48 83 38 00          	cmp    QWORD PTR [rax],0x0
   14000174c:	74 1e                	je     0x14000176c
   14000174e:	48 8b c8             	mov    rcx,rax
   140001751:	e8 6e 03 00 00       	call   0x140001ac4
   140001756:	84 c0                	test   al,al
   140001758:	74 12                	je     0x14000176c
   14000175a:	45 33 c0             	xor    r8d,r8d
   14000175d:	41 8d 50 02          	lea    edx,[r8+0x2]
   140001761:	33 c9                	xor    ecx,ecx
   140001763:	48 8b 03             	mov    rax,QWORD PTR [rbx]
   140001766:	ff 15 54 1a 00 00    	call   QWORD PTR [rip+0x1a54]        # 0x1400031c0
   14000176c:	e8 97 05 00 00       	call   0x140001d08
   140001771:	48 8b d8             	mov    rbx,rax
   140001774:	48 83 38 00          	cmp    QWORD PTR [rax],0x0
   140001778:	74 14                	je     0x14000178e
   14000177a:	48 8b c8             	mov    rcx,rax
   14000177d:	e8 42 03 00 00       	call   0x140001ac4
   140001782:	84 c0                	test   al,al
   140001784:	74 08                	je     0x14000178e
   140001786:	48 8b 0b             	mov    rcx,QWORD PTR [rbx]
   140001789:	e8 44 0a 00 00       	call   0x1400021d2
   14000178e:	e8 09 0a 00 00       	call   0x14000219c
   140001793:	48 8b f8             	mov    rdi,rax
   140001796:	e8 25 0a 00 00       	call   0x1400021c0
   14000179b:	48 8b 18             	mov    rbx,QWORD PTR [rax]
   14000179e:	e8 17 0a 00 00       	call   0x1400021ba
   1400017a3:	4c 8b c7             	mov    r8,rdi
   1400017a6:	48 8b d3             	mov    rdx,rbx
   1400017a9:	8b 08                	mov    ecx,DWORD PTR [rax]
   1400017ab:	e8 80 fc ff ff       	call   0x140001430
   1400017b0:	8b d8                	mov    ebx,eax
   1400017b2:	e8 b5 06 00 00       	call   0x140001e6c
   1400017b7:	84 c0                	test   al,al
   1400017b9:	74 55                	je     0x140001810
   1400017bb:	40 84 f6             	test   sil,sil
   1400017be:	75 05                	jne    0x1400017c5
   1400017c0:	e8 01 0a 00 00       	call   0x1400021c6
   1400017c5:	33 d2                	xor    edx,edx
   1400017c7:	b1 01                	mov    cl,0x1
   1400017c9:	e8 b2 03 00 00       	call   0x140001b80
   1400017ce:	8b c3                	mov    eax,ebx
   1400017d0:	eb 19                	jmp    0x1400017eb
   1400017d2:	8b d8                	mov    ebx,eax
   1400017d4:	e8 93 06 00 00       	call   0x140001e6c
   1400017d9:	84 c0                	test   al,al
   1400017db:	74 3b                	je     0x140001818
   1400017dd:	80 7c 24 20 00       	cmp    BYTE PTR [rsp+0x20],0x0
   1400017e2:	75 05                	jne    0x1400017e9
   1400017e4:	e8 e3 09 00 00       	call   0x1400021cc
   1400017e9:	8b c3                	mov    eax,ebx
   1400017eb:	48 8b 5c 24 40       	mov    rbx,QWORD PTR [rsp+0x40]
   1400017f0:	48 8b 74 24 48       	mov    rsi,QWORD PTR [rsp+0x48]
   1400017f5:	48 83 c4 30          	add    rsp,0x30
   1400017f9:	5f                   	pop    rdi
   1400017fa:	c3                   	ret    
   1400017fb:	b9 07 00 00 00       	mov    ecx,0x7
   140001800:	e8 13 05 00 00       	call   0x140001d18
   140001805:	90                   	nop
   140001806:	b9 07 00 00 00       	mov    ecx,0x7
   14000180b:	e8 08 05 00 00       	call   0x140001d18
   140001810:	8b cb                	mov    ecx,ebx
   140001812:	e8 61 09 00 00       	call   0x140002178
   140001817:	90                   	nop
   140001818:	8b cb                	mov    ecx,ebx
   14000181a:	e8 8f 09 00 00       	call   0x1400021ae
   14000181f:	90                   	nop
   140001820:	48 83 ec 28          	sub    rsp,0x28
   140001824:	e8 d7 03 00 00       	call   0x140001c00
   140001829:	48 83 c4 28          	add    rsp,0x28
   14000182d:	e9 72 fe ff ff       	jmp    0x1400016a4
   140001832:	cc                   	int3   
   140001833:	cc                   	int3   
   140001834:	40 53                	rex push rbx
   140001836:	48 83 ec 20          	sub    rsp,0x20
   14000183a:	48 8b d9             	mov    rbx,rcx
   14000183d:	33 c9                	xor    ecx,ecx
   14000183f:	ff 15 db 17 00 00    	call   QWORD PTR [rip+0x17db]        # 0x140003020
   140001845:	48 8b cb             	mov    rcx,rbx
   140001848:	ff 15 ca 17 00 00    	call   QWORD PTR [rip+0x17ca]        # 0x140003018
   14000184e:	ff 15 d4 17 00 00    	call   QWORD PTR [rip+0x17d4]        # 0x140003028
   140001854:	48 8b c8             	mov    rcx,rax
   140001857:	ba 09 04 00 c0       	mov    edx,0xc0000409
   14000185c:	48 83 c4 20          	add    rsp,0x20
   140001860:	5b                   	pop    rbx
   140001861:	48 ff 25 08 18 00 00 	rex.W jmp QWORD PTR [rip+0x1808]        # 0x140003070
   140001868:	48 89 4c 24 08       	mov    QWORD PTR [rsp+0x8],rcx
   14000186d:	48 83 ec 38          	sub    rsp,0x38
   140001871:	b9 17 00 00 00       	mov    ecx,0x17
   140001876:	ff 15 ec 17 00 00    	call   QWORD PTR [rip+0x17ec]        # 0x140003068
   14000187c:	85 c0                	test   eax,eax
   14000187e:	74 07                	je     0x140001887
   140001880:	b9 02 00 00 00       	mov    ecx,0x2
   140001885:	cd 29                	int    0x29
   140001887:	48 8d 0d 52 38 00 00 	lea    rcx,[rip+0x3852]        # 0x1400050e0
   14000188e:	e8 a9 00 00 00       	call   0x14000193c
   140001893:	48 8b 44 24 38       	mov    rax,QWORD PTR [rsp+0x38]
   140001898:	48 89 05 39 39 00 00 	mov    QWORD PTR [rip+0x3939],rax        # 0x1400051d8
   14000189f:	48 8d 44 24 38       	lea    rax,[rsp+0x38]
   1400018a4:	48 83 c0 08          	add    rax,0x8
   1400018a8:	48 89 05 c9 38 00 00 	mov    QWORD PTR [rip+0x38c9],rax        # 0x140005178
   1400018af:	48 8b 05 22 39 00 00 	mov    rax,QWORD PTR [rip+0x3922]        # 0x1400051d8
   1400018b6:	48 89 05 93 37 00 00 	mov    QWORD PTR [rip+0x3793],rax        # 0x140005050
   1400018bd:	48 8b 44 24 40       	mov    rax,QWORD PTR [rsp+0x40]
   1400018c2:	48 89 05 97 38 00 00 	mov    QWORD PTR [rip+0x3897],rax        # 0x140005160
   1400018c9:	c7 05 6d 37 00 00 09 	mov    DWORD PTR [rip+0x376d],0xc0000409        # 0x140005040
   1400018d0:	04 00 c0 
   1400018d3:	c7 05 67 37 00 00 01 	mov    DWORD PTR [rip+0x3767],0x1        # 0x140005044
   1400018da:	00 00 00 
   1400018dd:	c7 05 71 37 00 00 01 	mov    DWORD PTR [rip+0x3771],0x1        # 0x140005058
   1400018e4:	00 00 00 
   1400018e7:	b8 08 00 00 00       	mov    eax,0x8
   1400018ec:	48 6b c0 00          	imul   rax,rax,0x0
   1400018f0:	48 8d 0d 69 37 00 00 	lea    rcx,[rip+0x3769]        # 0x140005060
   1400018f7:	48 c7 04 01 02 00 00 	mov    QWORD PTR [rcx+rax*1],0x2
   1400018fe:	00 
   1400018ff:	b8 08 00 00 00       	mov    eax,0x8
   140001904:	48 6b c0 00          	imul   rax,rax,0x0
   140001908:	48 8b 0d f9 36 00 00 	mov    rcx,QWORD PTR [rip+0x36f9]        # 0x140005008
   14000190f:	48 89 4c 04 20       	mov    QWORD PTR [rsp+rax*1+0x20],rcx
   140001914:	b8 08 00 00 00       	mov    eax,0x8
   140001919:	48 6b c0 01          	imul   rax,rax,0x1
   14000191d:	48 8b 0d dc 36 00 00 	mov    rcx,QWORD PTR [rip+0x36dc]        # 0x140005000
   140001924:	48 89 4c 04 20       	mov    QWORD PTR [rsp+rax*1+0x20],rcx
   140001929:	48 8d 0d 10 19 00 00 	lea    rcx,[rip+0x1910]        # 0x140003240
   140001930:	e8 ff fe ff ff       	call   0x140001834
   140001935:	48 83 c4 38          	add    rsp,0x38
   140001939:	c3                   	ret    
   14000193a:	cc                   	int3   
   14000193b:	cc                   	int3   
   14000193c:	40 53                	rex push rbx
   14000193e:	56                   	push   rsi
   14000193f:	57                   	push   rdi
   140001940:	48 83 ec 40          	sub    rsp,0x40
   140001944:	48 8b d9             	mov    rbx,rcx
   140001947:	ff 15 03 17 00 00    	call   QWORD PTR [rip+0x1703]        # 0x140003050
   14000194d:	48 8b b3 f8 00 00 00 	mov    rsi,QWORD PTR [rbx+0xf8]
   140001954:	33 ff                	xor    edi,edi
   140001956:	45 33 c0             	xor    r8d,r8d
   140001959:	48 8d 54 24 60       	lea    rdx,[rsp+0x60]
   14000195e:	48 8b ce             	mov    rcx,rsi
   140001961:	ff 15 a1 16 00 00    	call   QWORD PTR [rip+0x16a1]        # 0x140003008
   140001967:	48 85 c0             	test   rax,rax
   14000196a:	74 39                	je     0x1400019a5
   14000196c:	48 83 64 24 38 00    	and    QWORD PTR [rsp+0x38],0x0
   140001972:	48 8d 4c 24 68       	lea    rcx,[rsp+0x68]
   140001977:	48 8b 54 24 60       	mov    rdx,QWORD PTR [rsp+0x60]
   14000197c:	4c 8b c8             	mov    r9,rax
   14000197f:	48 89 4c 24 30       	mov    QWORD PTR [rsp+0x30],rcx
   140001984:	4c 8b c6             	mov    r8,rsi
   140001987:	48 8d 4c 24 70       	lea    rcx,[rsp+0x70]
   14000198c:	48 89 4c 24 28       	mov    QWORD PTR [rsp+0x28],rcx
   140001991:	33 c9                	xor    ecx,ecx
   140001993:	48 89 5c 24 20       	mov    QWORD PTR [rsp+0x20],rbx
   140001998:	ff 15 72 16 00 00    	call   QWORD PTR [rip+0x1672]        # 0x140003010
   14000199e:	ff c7                	inc    edi
   1400019a0:	83 ff 02             	cmp    edi,0x2
   1400019a3:	7c b1                	jl     0x140001956
   1400019a5:	48 83 c4 40          	add    rsp,0x40
   1400019a9:	5f                   	pop    rdi
   1400019aa:	5e                   	pop    rsi
   1400019ab:	5b                   	pop    rbx
   1400019ac:	c3                   	ret    
   1400019ad:	cc                   	int3   
   1400019ae:	cc                   	int3   
   1400019af:	cc                   	int3   
   1400019b0:	48 83 ec 28          	sub    rsp,0x28
   1400019b4:	e8 97 07 00 00       	call   0x140002150
   1400019b9:	85 c0                	test   eax,eax
   1400019bb:	74 21                	je     0x1400019de
   1400019bd:	65 48 8b 04 25 30 00 	mov    rax,QWORD PTR gs:0x30
   1400019c4:	00 00 
   1400019c6:	48 8b 48 08          	mov    rcx,QWORD PTR [rax+0x8]
   1400019ca:	eb 05                	jmp    0x1400019d1
   1400019cc:	48 3b c8             	cmp    rcx,rax
   1400019cf:	74 14                	je     0x1400019e5
   1400019d1:	33 c0                	xor    eax,eax
   1400019d3:	f0 48 0f b1 0d dc 3b 	lock cmpxchg QWORD PTR [rip+0x3bdc],rcx        # 0x1400055b8
   1400019da:	00 00 
   1400019dc:	75 ee                	jne    0x1400019cc
   1400019de:	32 c0                	xor    al,al
   1400019e0:	48 83 c4 28          	add    rsp,0x28
   1400019e4:	c3                   	ret    
   1400019e5:	b0 01                	mov    al,0x1
   1400019e7:	eb f7                	jmp    0x1400019e0
   1400019e9:	cc                   	int3   
   1400019ea:	cc                   	int3   
   1400019eb:	cc                   	int3   
   1400019ec:	40 53                	rex push rbx
   1400019ee:	48 83 ec 20          	sub    rsp,0x20
   1400019f2:	0f b6 05 c7 3b 00 00 	movzx  eax,BYTE PTR [rip+0x3bc7]        # 0x1400055c0
   1400019f9:	85 c9                	test   ecx,ecx
   1400019fb:	bb 01 00 00 00       	mov    ebx,0x1
   140001a00:	0f 44 c3             	cmove  eax,ebx
   140001a03:	88 05 b7 3b 00 00    	mov    BYTE PTR [rip+0x3bb7],al        # 0x1400055c0
   140001a09:	e8 96 05 00 00       	call   0x140001fa4
   140001a0e:	e8 bd 02 00 00       	call   0x140001cd0
   140001a13:	84 c0                	test   al,al
   140001a15:	75 04                	jne    0x140001a1b
   140001a17:	32 c0                	xor    al,al
   140001a19:	eb 14                	jmp    0x140001a2f
   140001a1b:	e8 b0 02 00 00       	call   0x140001cd0
   140001a20:	84 c0                	test   al,al
   140001a22:	75 09                	jne    0x140001a2d
   140001a24:	33 c9                	xor    ecx,ecx
   140001a26:	e8 a5 02 00 00       	call   0x140001cd0
   140001a2b:	eb ea                	jmp    0x140001a17
   140001a2d:	8a c3                	mov    al,bl
   140001a2f:	48 83 c4 20          	add    rsp,0x20
   140001a33:	5b                   	pop    rbx
   140001a34:	c3                   	ret    
   140001a35:	cc                   	int3   
   140001a36:	cc                   	int3   
   140001a37:	cc                   	int3   
   140001a38:	40 53                	rex push rbx
   140001a3a:	48 83 ec 20          	sub    rsp,0x20
   140001a3e:	80 3d 7c 3b 00 00 00 	cmp    BYTE PTR [rip+0x3b7c],0x0        # 0x1400055c1
   140001a45:	8b d9                	mov    ebx,ecx
   140001a47:	75 67                	jne    0x140001ab0
   140001a49:	83 f9 01             	cmp    ecx,0x1
   140001a4c:	77 6a                	ja     0x140001ab8
   140001a4e:	e8 fd 06 00 00       	call   0x140002150
   140001a53:	85 c0                	test   eax,eax
   140001a55:	74 28                	je     0x140001a7f
   140001a57:	85 db                	test   ebx,ebx
   140001a59:	75 24                	jne    0x140001a7f
   140001a5b:	48 8d 0d 66 3b 00 00 	lea    rcx,[rip+0x3b66]        # 0x1400055c8
   140001a62:	e8 83 07 00 00       	call   0x1400021ea
   140001a67:	85 c0                	test   eax,eax
   140001a69:	75 10                	jne    0x140001a7b
   140001a6b:	48 8d 0d 6e 3b 00 00 	lea    rcx,[rip+0x3b6e]        # 0x1400055e0
   140001a72:	e8 73 07 00 00       	call   0x1400021ea
   140001a77:	85 c0                	test   eax,eax
   140001a79:	74 2e                	je     0x140001aa9
   140001a7b:	32 c0                	xor    al,al
   140001a7d:	eb 33                	jmp    0x140001ab2
   140001a7f:	66 0f 6f 05 c9 17 00 	movdqa xmm0,XMMWORD PTR [rip+0x17c9]        # 0x140003250
   140001a86:	00 
   140001a87:	48 83 c8 ff          	or     rax,0xffffffffffffffff
   140001a8b:	f3 0f 7f 05 35 3b 00 	movdqu XMMWORD PTR [rip+0x3b35],xmm0        # 0x1400055c8
   140001a92:	00 
   140001a93:	48 89 05 3e 3b 00 00 	mov    QWORD PTR [rip+0x3b3e],rax        # 0x1400055d8
   140001a9a:	f3 0f 7f 05 3e 3b 00 	movdqu XMMWORD PTR [rip+0x3b3e],xmm0        # 0x1400055e0
   140001aa1:	00 
   140001aa2:	48 89 05 47 3b 00 00 	mov    QWORD PTR [rip+0x3b47],rax        # 0x1400055f0
   140001aa9:	c6 05 11 3b 00 00 01 	mov    BYTE PTR [rip+0x3b11],0x1        # 0x1400055c1
   140001ab0:	b0 01                	mov    al,0x1
   140001ab2:	48 83 c4 20          	add    rsp,0x20
   140001ab6:	5b                   	pop    rbx
   140001ab7:	c3                   	ret    
   140001ab8:	b9 05 00 00 00       	mov    ecx,0x5
   140001abd:	e8 56 02 00 00       	call   0x140001d18
   140001ac2:	cc                   	int3   
   140001ac3:	cc                   	int3   
   140001ac4:	48 83 ec 18          	sub    rsp,0x18
   140001ac8:	4c 8b c1             	mov    r8,rcx
   140001acb:	b8 4d 5a 00 00       	mov    eax,0x5a4d
   140001ad0:	66 39 05 29 e5 ff ff 	cmp    WORD PTR [rip+0xffffffffffffe529],ax        # 0x140000000
   140001ad7:	75 78                	jne    0x140001b51
   140001ad9:	48 63 0d 5c e5 ff ff 	movsxd rcx,DWORD PTR [rip+0xffffffffffffe55c]        # 0x14000003c
   140001ae0:	48 8d 15 19 e5 ff ff 	lea    rdx,[rip+0xffffffffffffe519]        # 0x140000000
   140001ae7:	48 03 ca             	add    rcx,rdx
   140001aea:	81 39 50 45 00 00    	cmp    DWORD PTR [rcx],0x4550
   140001af0:	75 5f                	jne    0x140001b51
   140001af2:	b8 0b 02 00 00       	mov    eax,0x20b
   140001af7:	66 39 41 18          	cmp    WORD PTR [rcx+0x18],ax
   140001afb:	75 54                	jne    0x140001b51
   140001afd:	4c 2b c2             	sub    r8,rdx
   140001b00:	0f b7 51 14          	movzx  edx,WORD PTR [rcx+0x14]
   140001b04:	48 83 c2 18          	add    rdx,0x18
   140001b08:	48 03 d1             	add    rdx,rcx
   140001b0b:	0f b7 41 06          	movzx  eax,WORD PTR [rcx+0x6]
   140001b0f:	48 8d 0c 80          	lea    rcx,[rax+rax*4]
   140001b13:	4c 8d 0c ca          	lea    r9,[rdx+rcx*8]
   140001b17:	48 89 14 24          	mov    QWORD PTR [rsp],rdx
   140001b1b:	49 3b d1             	cmp    rdx,r9
   140001b1e:	74 18                	je     0x140001b38
   140001b20:	8b 4a 0c             	mov    ecx,DWORD PTR [rdx+0xc]
   140001b23:	4c 3b c1             	cmp    r8,rcx
   140001b26:	72 0a                	jb     0x140001b32
   140001b28:	8b 42 08             	mov    eax,DWORD PTR [rdx+0x8]
   140001b2b:	03 c1                	add    eax,ecx
   140001b2d:	4c 3b c0             	cmp    r8,rax
   140001b30:	72 08                	jb     0x140001b3a
   140001b32:	48 83 c2 28          	add    rdx,0x28
   140001b36:	eb df                	jmp    0x140001b17
   140001b38:	33 d2                	xor    edx,edx
   140001b3a:	48 85 d2             	test   rdx,rdx
   140001b3d:	75 04                	jne    0x140001b43
   140001b3f:	32 c0                	xor    al,al
   140001b41:	eb 14                	jmp    0x140001b57
   140001b43:	83 7a 24 00          	cmp    DWORD PTR [rdx+0x24],0x0
   140001b47:	7d 04                	jge    0x140001b4d
   140001b49:	32 c0                	xor    al,al
   140001b4b:	eb 0a                	jmp    0x140001b57
   140001b4d:	b0 01                	mov    al,0x1
   140001b4f:	eb 06                	jmp    0x140001b57
   140001b51:	32 c0                	xor    al,al
   140001b53:	eb 02                	jmp    0x140001b57
   140001b55:	32 c0                	xor    al,al
   140001b57:	48 83 c4 18          	add    rsp,0x18
   140001b5b:	c3                   	ret    
   140001b5c:	40 53                	rex push rbx
   140001b5e:	48 83 ec 20          	sub    rsp,0x20
   140001b62:	8a d9                	mov    bl,cl
   140001b64:	e8 e7 05 00 00       	call   0x140002150
   140001b69:	33 d2                	xor    edx,edx
   140001b6b:	85 c0                	test   eax,eax
   140001b6d:	74 0b                	je     0x140001b7a
   140001b6f:	84 db                	test   bl,bl
   140001b71:	75 07                	jne    0x140001b7a
   140001b73:	48 87 15 3e 3a 00 00 	xchg   QWORD PTR [rip+0x3a3e],rdx        # 0x1400055b8
   140001b7a:	48 83 c4 20          	add    rsp,0x20
   140001b7e:	5b                   	pop    rbx
   140001b7f:	c3                   	ret    
   140001b80:	40 53                	rex push rbx
   140001b82:	48 83 ec 20          	sub    rsp,0x20
   140001b86:	80 3d 33 3a 00 00 00 	cmp    BYTE PTR [rip+0x3a33],0x0        # 0x1400055c0
   140001b8d:	8a d9                	mov    bl,cl
   140001b8f:	74 04                	je     0x140001b95
   140001b91:	84 d2                	test   dl,dl
   140001b93:	75 0c                	jne    0x140001ba1
   140001b95:	e8 36 01 00 00       	call   0x140001cd0
   140001b9a:	8a cb                	mov    cl,bl
   140001b9c:	e8 2f 01 00 00       	call   0x140001cd0
   140001ba1:	b0 01                	mov    al,0x1
   140001ba3:	48 83 c4 20          	add    rsp,0x20
   140001ba7:	5b                   	pop    rbx
   140001ba8:	c3                   	ret    
   140001ba9:	cc                   	int3   
   140001baa:	cc                   	int3   
   140001bab:	cc                   	int3   
   140001bac:	40 53                	rex push rbx
   140001bae:	48 83 ec 20          	sub    rsp,0x20
   140001bb2:	48 83 3d 0e 3a 00 00 	cmp    QWORD PTR [rip+0x3a0e],0xffffffffffffffff        # 0x1400055c8
   140001bb9:	ff 
   140001bba:	48 8b d9             	mov    rbx,rcx
   140001bbd:	75 07                	jne    0x140001bc6
   140001bbf:	e8 32 06 00 00       	call   0x1400021f6
   140001bc4:	eb 0f                	jmp    0x140001bd5
   140001bc6:	48 8b d3             	mov    rdx,rbx
   140001bc9:	48 8d 0d f8 39 00 00 	lea    rcx,[rip+0x39f8]        # 0x1400055c8
   140001bd0:	e8 1b 06 00 00       	call   0x1400021f0
   140001bd5:	33 d2                	xor    edx,edx
   140001bd7:	85 c0                	test   eax,eax
   140001bd9:	48 0f 44 d3          	cmove  rdx,rbx
   140001bdd:	48 8b c2             	mov    rax,rdx
   140001be0:	48 83 c4 20          	add    rsp,0x20
   140001be4:	5b                   	pop    rbx
   140001be5:	c3                   	ret    
   140001be6:	cc                   	int3   
   140001be7:	cc                   	int3   
   140001be8:	48 83 ec 28          	sub    rsp,0x28
   140001bec:	e8 bb ff ff ff       	call   0x140001bac
   140001bf1:	48 f7 d8             	neg    rax
   140001bf4:	1b c0                	sbb    eax,eax
   140001bf6:	f7 d8                	neg    eax
   140001bf8:	ff c8                	dec    eax
   140001bfa:	48 83 c4 28          	add    rsp,0x28
   140001bfe:	c3                   	ret    
   140001bff:	cc                   	int3   
   140001c00:	48 89 5c 24 20       	mov    QWORD PTR [rsp+0x20],rbx
   140001c05:	55                   	push   rbp
   140001c06:	48 8b ec             	mov    rbp,rsp
   140001c09:	48 83 ec 20          	sub    rsp,0x20
   140001c0d:	48 8b 05 f4 33 00 00 	mov    rax,QWORD PTR [rip+0x33f4]        # 0x140005008
   140001c14:	48 bb 32 a2 df 2d 99 	movabs rbx,0x2b992ddfa232
   140001c1b:	2b 00 00 
   140001c1e:	48 3b c3             	cmp    rax,rbx
   140001c21:	75 74                	jne    0x140001c97
   140001c23:	48 83 65 18 00       	and    QWORD PTR [rbp+0x18],0x0
   140001c28:	48 8d 4d 18          	lea    rcx,[rbp+0x18]
   140001c2c:	ff 15 16 14 00 00    	call   QWORD PTR [rip+0x1416]        # 0x140003048
   140001c32:	48 8b 45 18          	mov    rax,QWORD PTR [rbp+0x18]
   140001c36:	48 89 45 10          	mov    QWORD PTR [rbp+0x10],rax
   140001c3a:	ff 15 c0 13 00 00    	call   QWORD PTR [rip+0x13c0]        # 0x140003000
   140001c40:	8b c0                	mov    eax,eax
   140001c42:	48 31 45 10          	xor    QWORD PTR [rbp+0x10],rax
   140001c46:	ff 15 0c 14 00 00    	call   QWORD PTR [rip+0x140c]        # 0x140003058
   140001c4c:	8b c0                	mov    eax,eax
   140001c4e:	48 8d 4d 20          	lea    rcx,[rbp+0x20]
   140001c52:	48 31 45 10          	xor    QWORD PTR [rbp+0x10],rax
   140001c56:	ff 15 04 14 00 00    	call   QWORD PTR [rip+0x1404]        # 0x140003060
   140001c5c:	8b 45 20             	mov    eax,DWORD PTR [rbp+0x20]
   140001c5f:	48 8d 4d 10          	lea    rcx,[rbp+0x10]
   140001c63:	48 c1 e0 20          	shl    rax,0x20
   140001c67:	48 33 45 20          	xor    rax,QWORD PTR [rbp+0x20]
   140001c6b:	48 33 45 10          	xor    rax,QWORD PTR [rbp+0x10]
   140001c6f:	48 33 c1             	xor    rax,rcx
   140001c72:	48 b9 ff ff ff ff ff 	movabs rcx,0xffffffffffff
   140001c79:	ff 00 00 
   140001c7c:	48 23 c1             	and    rax,rcx
   140001c7f:	48 b9 33 a2 df 2d 99 	movabs rcx,0x2b992ddfa233
   140001c86:	2b 00 00 
   140001c89:	48 3b c3             	cmp    rax,rbx
   140001c8c:	48 0f 44 c1          	cmove  rax,rcx
   140001c90:	48 89 05 71 33 00 00 	mov    QWORD PTR [rip+0x3371],rax        # 0x140005008
   140001c97:	48 8b 5c 24 48       	mov    rbx,QWORD PTR [rsp+0x48]
   140001c9c:	48 f7 d0             	not    rax
   140001c9f:	48 89 05 5a 33 00 00 	mov    QWORD PTR [rip+0x335a],rax        # 0x140005000
   140001ca6:	48 83 c4 20          	add    rsp,0x20
   140001caa:	5d                   	pop    rbp
   140001cab:	c3                   	ret    
   140001cac:	33 c0                	xor    eax,eax
   140001cae:	c3                   	ret    
   140001caf:	cc                   	int3   
   140001cb0:	b8 01 00 00 00       	mov    eax,0x1
   140001cb5:	c3                   	ret    
   140001cb6:	cc                   	int3   
   140001cb7:	cc                   	int3   
   140001cb8:	b8 00 40 00 00       	mov    eax,0x4000
   140001cbd:	c3                   	ret    
   140001cbe:	cc                   	int3   
   140001cbf:	cc                   	int3   
   140001cc0:	48 8d 0d 39 39 00 00 	lea    rcx,[rip+0x3939]        # 0x140005600
   140001cc7:	48 ff 25 72 13 00 00 	rex.W jmp QWORD PTR [rip+0x1372]        # 0x140003040
   140001cce:	cc                   	int3   
   140001ccf:	cc                   	int3   
   140001cd0:	b0 01                	mov    al,0x1
   140001cd2:	c3                   	ret    
   140001cd3:	cc                   	int3   
   140001cd4:	c2 00 00             	ret    0x0
   140001cd7:	cc                   	int3   
   140001cd8:	48 83 ec 28          	sub    rsp,0x28
   140001cdc:	e8 1f f3 ff ff       	call   0x140001000
   140001ce1:	48 83 08 24          	or     QWORD PTR [rax],0x24
   140001ce5:	e8 26 f3 ff ff       	call   0x140001010
   140001cea:	48 83 08 02          	or     QWORD PTR [rax],0x2
   140001cee:	48 83 c4 28          	add    rsp,0x28
   140001cf2:	c3                   	ret    
   140001cf3:	cc                   	int3   
   140001cf4:	33 c0                	xor    eax,eax
   140001cf6:	39 05 18 33 00 00    	cmp    DWORD PTR [rip+0x3318],eax        # 0x140005014
   140001cfc:	0f 94 c0             	sete   al
   140001cff:	c3                   	ret    
   140001d00:	48 8d 05 19 39 00 00 	lea    rax,[rip+0x3919]        # 0x140005620
   140001d07:	c3                   	ret    
   140001d08:	48 8d 05 09 39 00 00 	lea    rax,[rip+0x3909]        # 0x140005618
   140001d0f:	c3                   	ret    
   140001d10:	83 25 f9 38 00 00 00 	and    DWORD PTR [rip+0x38f9],0x0        # 0x140005610
   140001d17:	c3                   	ret    
   140001d18:	48 89 5c 24 08       	mov    QWORD PTR [rsp+0x8],rbx
   140001d1d:	55                   	push   rbp
   140001d1e:	48 8d ac 24 40 fb ff 	lea    rbp,[rsp-0x4c0]
   140001d25:	ff 
   140001d26:	48 81 ec c0 05 00 00 	sub    rsp,0x5c0
   140001d2d:	8b d9                	mov    ebx,ecx
   140001d2f:	b9 17 00 00 00       	mov    ecx,0x17
   140001d34:	ff 15 2e 13 00 00    	call   QWORD PTR [rip+0x132e]        # 0x140003068
   140001d3a:	85 c0                	test   eax,eax
   140001d3c:	74 04                	je     0x140001d42
   140001d3e:	8b cb                	mov    ecx,ebx
   140001d40:	cd 29                	int    0x29
   140001d42:	b9 03 00 00 00       	mov    ecx,0x3
   140001d47:	e8 c4 ff ff ff       	call   0x140001d10
   140001d4c:	33 d2                	xor    edx,edx
   140001d4e:	48 8d 4d f0          	lea    rcx,[rbp-0x10]
   140001d52:	41 b8 d0 04 00 00    	mov    r8d,0x4d0
   140001d58:	e8 15 04 00 00       	call   0x140002172
   140001d5d:	48 8d 4d f0          	lea    rcx,[rbp-0x10]
   140001d61:	ff 15 e9 12 00 00    	call   QWORD PTR [rip+0x12e9]        # 0x140003050
   140001d67:	48 8b 9d e8 00 00 00 	mov    rbx,QWORD PTR [rbp+0xe8]
   140001d6e:	48 8d 95 d8 04 00 00 	lea    rdx,[rbp+0x4d8]
   140001d75:	48 8b cb             	mov    rcx,rbx
   140001d78:	45 33 c0             	xor    r8d,r8d
   140001d7b:	ff 15 87 12 00 00    	call   QWORD PTR [rip+0x1287]        # 0x140003008
   140001d81:	48 85 c0             	test   rax,rax
   140001d84:	74 3c                	je     0x140001dc2
   140001d86:	48 83 64 24 38 00    	and    QWORD PTR [rsp+0x38],0x0
   140001d8c:	48 8d 8d e0 04 00 00 	lea    rcx,[rbp+0x4e0]
   140001d93:	48 8b 95 d8 04 00 00 	mov    rdx,QWORD PTR [rbp+0x4d8]
   140001d9a:	4c 8b c8             	mov    r9,rax
   140001d9d:	48 89 4c 24 30       	mov    QWORD PTR [rsp+0x30],rcx
   140001da2:	4c 8b c3             	mov    r8,rbx
   140001da5:	48 8d 8d e8 04 00 00 	lea    rcx,[rbp+0x4e8]
   140001dac:	48 89 4c 24 28       	mov    QWORD PTR [rsp+0x28],rcx
   140001db1:	48 8d 4d f0          	lea    rcx,[rbp-0x10]
   140001db5:	48 89 4c 24 20       	mov    QWORD PTR [rsp+0x20],rcx
   140001dba:	33 c9                	xor    ecx,ecx
   140001dbc:	ff 15 4e 12 00 00    	call   QWORD PTR [rip+0x124e]        # 0x140003010
   140001dc2:	48 8b 85 c8 04 00 00 	mov    rax,QWORD PTR [rbp+0x4c8]
   140001dc9:	48 8d 4c 24 50       	lea    rcx,[rsp+0x50]
   140001dce:	48 89 85 e8 00 00 00 	mov    QWORD PTR [rbp+0xe8],rax
   140001dd5:	33 d2                	xor    edx,edx
   140001dd7:	48 8d 85 c8 04 00 00 	lea    rax,[rbp+0x4c8]
   140001dde:	41 b8 98 00 00 00    	mov    r8d,0x98
   140001de4:	48 83 c0 08          	add    rax,0x8
   140001de8:	48 89 85 88 00 00 00 	mov    QWORD PTR [rbp+0x88],rax
   140001def:	e8 7e 03 00 00       	call   0x140002172
   140001df4:	48 8b 85 c8 04 00 00 	mov    rax,QWORD PTR [rbp+0x4c8]
   140001dfb:	48 89 44 24 60       	mov    QWORD PTR [rsp+0x60],rax
   140001e00:	c7 44 24 50 15 00 00 	mov    DWORD PTR [rsp+0x50],0x40000015
   140001e07:	40 
   140001e08:	c7 44 24 54 01 00 00 	mov    DWORD PTR [rsp+0x54],0x1
   140001e0f:	00 
   140001e10:	ff 15 22 12 00 00    	call   QWORD PTR [rip+0x1222]        # 0x140003038
   140001e16:	83 f8 01             	cmp    eax,0x1
   140001e19:	48 8d 44 24 50       	lea    rax,[rsp+0x50]
   140001e1e:	48 89 44 24 40       	mov    QWORD PTR [rsp+0x40],rax
   140001e23:	48 8d 45 f0          	lea    rax,[rbp-0x10]
   140001e27:	0f 94 c3             	sete   bl
   140001e2a:	48 89 44 24 48       	mov    QWORD PTR [rsp+0x48],rax
   140001e2f:	33 c9                	xor    ecx,ecx
   140001e31:	ff 15 e9 11 00 00    	call   QWORD PTR [rip+0x11e9]        # 0x140003020
   140001e37:	48 8d 4c 24 40       	lea    rcx,[rsp+0x40]
   140001e3c:	ff 15 d6 11 00 00    	call   QWORD PTR [rip+0x11d6]        # 0x140003018
   140001e42:	85 c0                	test   eax,eax
   140001e44:	75 0c                	jne    0x140001e52
   140001e46:	84 db                	test   bl,bl
   140001e48:	75 08                	jne    0x140001e52
   140001e4a:	8d 48 03             	lea    ecx,[rax+0x3]
   140001e4d:	e8 be fe ff ff       	call   0x140001d10
   140001e52:	48 8b 9c 24 d0 05 00 	mov    rbx,QWORD PTR [rsp+0x5d0]
   140001e59:	00 
   140001e5a:	48 81 c4 c0 05 00 00 	add    rsp,0x5c0
   140001e61:	5d                   	pop    rbp
   140001e62:	c3                   	ret    
   140001e63:	cc                   	int3   
   140001e64:	e9 43 fe ff ff       	jmp    0x140001cac
   140001e69:	cc                   	int3   
   140001e6a:	cc                   	int3   
   140001e6b:	cc                   	int3   
   140001e6c:	48 83 ec 28          	sub    rsp,0x28
   140001e70:	33 c9                	xor    ecx,ecx
   140001e72:	ff 15 b8 11 00 00    	call   QWORD PTR [rip+0x11b8]        # 0x140003030
   140001e78:	48 85 c0             	test   rax,rax
   140001e7b:	74 39                	je     0x140001eb6
   140001e7d:	b9 4d 5a 00 00       	mov    ecx,0x5a4d
   140001e82:	66 39 08             	cmp    WORD PTR [rax],cx
   140001e85:	75 2f                	jne    0x140001eb6
   140001e87:	48 63 48 3c          	movsxd rcx,DWORD PTR [rax+0x3c]
   140001e8b:	48 03 c8             	add    rcx,rax
   140001e8e:	81 39 50 45 00 00    	cmp    DWORD PTR [rcx],0x4550
   140001e94:	75 20                	jne    0x140001eb6
   140001e96:	b8 0b 02 00 00       	mov    eax,0x20b
   140001e9b:	66 39 41 18          	cmp    WORD PTR [rcx+0x18],ax
   140001e9f:	75 15                	jne    0x140001eb6
   140001ea1:	83 b9 84 00 00 00 0e 	cmp    DWORD PTR [rcx+0x84],0xe
   140001ea8:	76 0c                	jbe    0x140001eb6
   140001eaa:	83 b9 f8 00 00 00 00 	cmp    DWORD PTR [rcx+0xf8],0x0
   140001eb1:	0f 95 c0             	setne  al
   140001eb4:	eb 02                	jmp    0x140001eb8
   140001eb6:	32 c0                	xor    al,al
   140001eb8:	48 83 c4 28          	add    rsp,0x28
   140001ebc:	c3                   	ret    
   140001ebd:	cc                   	int3   
   140001ebe:	cc                   	int3   
   140001ebf:	cc                   	int3   
   140001ec0:	48 8d 0d 09 00 00 00 	lea    rcx,[rip+0x9]        # 0x140001ed0
   140001ec7:	48 ff 25 52 11 00 00 	rex.W jmp QWORD PTR [rip+0x1152]        # 0x140003020
   140001ece:	cc                   	int3   
   140001ecf:	cc                   	int3   
   140001ed0:	48 89 5c 24 08       	mov    QWORD PTR [rsp+0x8],rbx
   140001ed5:	57                   	push   rdi
   140001ed6:	48 83 ec 20          	sub    rsp,0x20
   140001eda:	48 8b 19             	mov    rbx,QWORD PTR [rcx]
   140001edd:	48 8b f9             	mov    rdi,rcx
   140001ee0:	81 3b 63 73 6d e0    	cmp    DWORD PTR [rbx],0xe06d7363
   140001ee6:	75 1c                	jne    0x140001f04
   140001ee8:	83 7b 18 04          	cmp    DWORD PTR [rbx+0x18],0x4
   140001eec:	75 16                	jne    0x140001f04
   140001eee:	8b 53 20             	mov    edx,DWORD PTR [rbx+0x20]
   140001ef1:	8d 82 e0 fa 6c e6    	lea    eax,[rdx-0x19930520]
   140001ef7:	83 f8 02             	cmp    eax,0x2
   140001efa:	76 15                	jbe    0x140001f11
   140001efc:	81 fa 00 40 99 01    	cmp    edx,0x1994000
   140001f02:	74 0d                	je     0x140001f11
   140001f04:	48 8b 5c 24 30       	mov    rbx,QWORD PTR [rsp+0x30]
   140001f09:	33 c0                	xor    eax,eax
   140001f0b:	48 83 c4 20          	add    rsp,0x20
   140001f0f:	5f                   	pop    rdi
   140001f10:	c3                   	ret    
   140001f11:	e8 50 02 00 00       	call   0x140002166
   140001f16:	48 89 18             	mov    QWORD PTR [rax],rbx
   140001f19:	48 8b 5f 08          	mov    rbx,QWORD PTR [rdi+0x8]
   140001f1d:	e8 4a 02 00 00       	call   0x14000216c
   140001f22:	48 89 18             	mov    QWORD PTR [rax],rbx
   140001f25:	e8 d2 02 00 00       	call   0x1400021fc
   140001f2a:	cc                   	int3   
   140001f2b:	cc                   	int3   
   140001f2c:	48 89 5c 24 08       	mov    QWORD PTR [rsp+0x8],rbx
   140001f31:	57                   	push   rdi
   140001f32:	48 83 ec 20          	sub    rsp,0x20
   140001f36:	48 8d 1d a3 19 00 00 	lea    rbx,[rip+0x19a3]        # 0x1400038e0
   140001f3d:	48 8d 3d 9c 19 00 00 	lea    rdi,[rip+0x199c]        # 0x1400038e0
   140001f44:	eb 12                	jmp    0x140001f58
   140001f46:	48 8b 03             	mov    rax,QWORD PTR [rbx]
   140001f49:	48 85 c0             	test   rax,rax
   140001f4c:	74 06                	je     0x140001f54
   140001f4e:	ff 15 6c 12 00 00    	call   QWORD PTR [rip+0x126c]        # 0x1400031c0
   140001f54:	48 83 c3 08          	add    rbx,0x8
   140001f58:	48 3b df             	cmp    rbx,rdi
   140001f5b:	72 e9                	jb     0x140001f46
   140001f5d:	48 8b 5c 24 30       	mov    rbx,QWORD PTR [rsp+0x30]
   140001f62:	48 83 c4 20          	add    rsp,0x20
   140001f66:	5f                   	pop    rdi
   140001f67:	c3                   	ret    
   140001f68:	48 89 5c 24 08       	mov    QWORD PTR [rsp+0x8],rbx
   140001f6d:	57                   	push   rdi
   140001f6e:	48 83 ec 20          	sub    rsp,0x20
   140001f72:	48 8d 1d 77 19 00 00 	lea    rbx,[rip+0x1977]        # 0x1400038f0
   140001f79:	48 8d 3d 70 19 00 00 	lea    rdi,[rip+0x1970]        # 0x1400038f0
   140001f80:	eb 12                	jmp    0x140001f94
   140001f82:	48 8b 03             	mov    rax,QWORD PTR [rbx]
   140001f85:	48 85 c0             	test   rax,rax
   140001f88:	74 06                	je     0x140001f90
   140001f8a:	ff 15 30 12 00 00    	call   QWORD PTR [rip+0x1230]        # 0x1400031c0
   140001f90:	48 83 c3 08          	add    rbx,0x8
   140001f94:	48 3b df             	cmp    rbx,rdi
   140001f97:	72 e9                	jb     0x140001f82
   140001f99:	48 8b 5c 24 30       	mov    rbx,QWORD PTR [rsp+0x30]
   140001f9e:	48 83 c4 20          	add    rsp,0x20
   140001fa2:	5f                   	pop    rdi
   140001fa3:	c3                   	ret    
   140001fa4:	48 89 5c 24 10       	mov    QWORD PTR [rsp+0x10],rbx
   140001fa9:	48 89 74 24 18       	mov    QWORD PTR [rsp+0x18],rsi
   140001fae:	57                   	push   rdi
   140001faf:	48 83 ec 10          	sub    rsp,0x10
   140001fb3:	33 c0                	xor    eax,eax
   140001fb5:	33 c9                	xor    ecx,ecx
   140001fb7:	0f a2                	cpuid  
   140001fb9:	44 8b c1             	mov    r8d,ecx
   140001fbc:	45 33 db             	xor    r11d,r11d
   140001fbf:	44 8b d2             	mov    r10d,edx
   140001fc2:	41 81 f0 6e 74 65 6c 	xor    r8d,0x6c65746e
   140001fc9:	41 81 f2 69 6e 65 49 	xor    r10d,0x49656e69
   140001fd0:	44 8b cb             	mov    r9d,ebx
   140001fd3:	8b f0                	mov    esi,eax
   140001fd5:	33 c9                	xor    ecx,ecx
   140001fd7:	41 8d 43 01          	lea    eax,[r11+0x1]
   140001fdb:	45 0b d0             	or     r10d,r8d
   140001fde:	0f a2                	cpuid  
   140001fe0:	41 81 f1 47 65 6e 75 	xor    r9d,0x756e6547
   140001fe7:	89 04 24             	mov    DWORD PTR [rsp],eax
   140001fea:	45 0b d1             	or     r10d,r9d
   140001fed:	89 5c 24 04          	mov    DWORD PTR [rsp+0x4],ebx
   140001ff1:	8b f9                	mov    edi,ecx
   140001ff3:	89 4c 24 08          	mov    DWORD PTR [rsp+0x8],ecx
   140001ff7:	89 54 24 0c          	mov    DWORD PTR [rsp+0xc],edx
   140001ffb:	75 5b                	jne    0x140002058
   140001ffd:	48 83 0d 23 30 00 00 	or     QWORD PTR [rip+0x3023],0xffffffffffffffff        # 0x140005028
   140002004:	ff 
   140002005:	25 f0 3f ff 0f       	and    eax,0xfff3ff0
   14000200a:	48 c7 05 0b 30 00 00 	mov    QWORD PTR [rip+0x300b],0x8000        # 0x140005020
   140002011:	00 80 00 00 
   140002015:	3d c0 06 01 00       	cmp    eax,0x106c0
   14000201a:	74 28                	je     0x140002044
   14000201c:	3d 60 06 02 00       	cmp    eax,0x20660
   140002021:	74 21                	je     0x140002044
   140002023:	3d 70 06 02 00       	cmp    eax,0x20670
   140002028:	74 1a                	je     0x140002044
   14000202a:	05 b0 f9 fc ff       	add    eax,0xfffcf9b0
   14000202f:	83 f8 20             	cmp    eax,0x20
   140002032:	77 24                	ja     0x140002058
   140002034:	48 b9 01 00 01 00 01 	movabs rcx,0x100010001
   14000203b:	00 00 00 
   14000203e:	48 0f a3 c1          	bt     rcx,rax
   140002042:	73 14                	jae    0x140002058
   140002044:	44 8b 05 c9 35 00 00 	mov    r8d,DWORD PTR [rip+0x35c9]        # 0x140005614
   14000204b:	41 83 c8 01          	or     r8d,0x1
   14000204f:	44 89 05 be 35 00 00 	mov    DWORD PTR [rip+0x35be],r8d        # 0x140005614
   140002056:	eb 07                	jmp    0x14000205f
   140002058:	44 8b 05 b5 35 00 00 	mov    r8d,DWORD PTR [rip+0x35b5]        # 0x140005614
   14000205f:	b8 07 00 00 00       	mov    eax,0x7
   140002064:	44 8d 48 fb          	lea    r9d,[rax-0x5]
   140002068:	3b f0                	cmp    esi,eax
   14000206a:	7c 26                	jl     0x140002092
   14000206c:	33 c9                	xor    ecx,ecx
   14000206e:	0f a2                	cpuid  
   140002070:	89 04 24             	mov    DWORD PTR [rsp],eax
   140002073:	44 8b db             	mov    r11d,ebx
   140002076:	89 5c 24 04          	mov    DWORD PTR [rsp+0x4],ebx
   14000207a:	89 4c 24 08          	mov    DWORD PTR [rsp+0x8],ecx
   14000207e:	89 54 24 0c          	mov    DWORD PTR [rsp+0xc],edx
   140002082:	0f ba e3 09          	bt     ebx,0x9
   140002086:	73 0a                	jae    0x140002092
   140002088:	45 0b c1             	or     r8d,r9d
   14000208b:	44 89 05 82 35 00 00 	mov    DWORD PTR [rip+0x3582],r8d        # 0x140005614
   140002092:	c7 05 7c 2f 00 00 01 	mov    DWORD PTR [rip+0x2f7c],0x1        # 0x140005018
   140002099:	00 00 00 
   14000209c:	44 89 0d 79 2f 00 00 	mov    DWORD PTR [rip+0x2f79],r9d        # 0x14000501c
   1400020a3:	0f ba e7 14          	bt     edi,0x14
   1400020a7:	0f 83 91 00 00 00    	jae    0x14000213e
   1400020ad:	44 89 0d 64 2f 00 00 	mov    DWORD PTR [rip+0x2f64],r9d        # 0x140005018
   1400020b4:	bb 06 00 00 00       	mov    ebx,0x6
   1400020b9:	89 1d 5d 2f 00 00    	mov    DWORD PTR [rip+0x2f5d],ebx        # 0x14000501c
   1400020bf:	0f ba e7 1b          	bt     edi,0x1b
   1400020c3:	73 79                	jae    0x14000213e
   1400020c5:	0f ba e7 1c          	bt     edi,0x1c
   1400020c9:	73 73                	jae    0x14000213e
   1400020cb:	33 c9                	xor    ecx,ecx
   1400020cd:	0f 01 d0             	xgetbv 
   1400020d0:	48 c1 e2 20          	shl    rdx,0x20
   1400020d4:	48 0b d0             	or     rdx,rax
   1400020d7:	48 89 54 24 20       	mov    QWORD PTR [rsp+0x20],rdx
   1400020dc:	48 8b 44 24 20       	mov    rax,QWORD PTR [rsp+0x20]
   1400020e1:	22 c3                	and    al,bl
   1400020e3:	3a c3                	cmp    al,bl
   1400020e5:	75 57                	jne    0x14000213e
   1400020e7:	8b 05 2f 2f 00 00    	mov    eax,DWORD PTR [rip+0x2f2f]        # 0x14000501c
   1400020ed:	83 c8 08             	or     eax,0x8
   1400020f0:	c7 05 1e 2f 00 00 03 	mov    DWORD PTR [rip+0x2f1e],0x3        # 0x140005018
   1400020f7:	00 00 00 
   1400020fa:	89 05 1c 2f 00 00    	mov    DWORD PTR [rip+0x2f1c],eax        # 0x14000501c
   140002100:	41 f6 c3 20          	test   r11b,0x20
   140002104:	74 38                	je     0x14000213e
   140002106:	83 c8 20             	or     eax,0x20
   140002109:	c7 05 05 2f 00 00 05 	mov    DWORD PTR [rip+0x2f05],0x5        # 0x140005018
   140002110:	00 00 00 
   140002113:	89 05 03 2f 00 00    	mov    DWORD PTR [rip+0x2f03],eax        # 0x14000501c
   140002119:	b8 00 00 03 d0       	mov    eax,0xd0030000
   14000211e:	44 23 d8             	and    r11d,eax
   140002121:	44 3b d8             	cmp    r11d,eax
   140002124:	75 18                	jne    0x14000213e
   140002126:	48 8b 44 24 20       	mov    rax,QWORD PTR [rsp+0x20]
   14000212b:	24 e0                	and    al,0xe0
   14000212d:	3c e0                	cmp    al,0xe0
   14000212f:	75 0d                	jne    0x14000213e
   140002131:	83 0d e4 2e 00 00 40 	or     DWORD PTR [rip+0x2ee4],0x40        # 0x14000501c
   140002138:	89 1d da 2e 00 00    	mov    DWORD PTR [rip+0x2eda],ebx        # 0x140005018
   14000213e:	48 8b 5c 24 28       	mov    rbx,QWORD PTR [rsp+0x28]
   140002143:	33 c0                	xor    eax,eax
   140002145:	48 8b 74 24 30       	mov    rsi,QWORD PTR [rsp+0x30]
   14000214a:	48 83 c4 10          	add    rsp,0x10
   14000214e:	5f                   	pop    rdi
   14000214f:	c3                   	ret    
   140002150:	33 c0                	xor    eax,eax
   140002152:	39 05 d8 2e 00 00    	cmp    DWORD PTR [rip+0x2ed8],eax        # 0x140005030
   140002158:	0f 95 c0             	setne  al
   14000215b:	c3                   	ret    
   14000215c:	cc                   	int3   
   14000215d:	cc                   	int3   
   14000215e:	cc                   	int3   
   14000215f:	cc                   	int3   
   140002160:	ff 25 2a 0f 00 00    	jmp    QWORD PTR [rip+0xf2a]        # 0x140003090
   140002166:	ff 25 1c 0f 00 00    	jmp    QWORD PTR [rip+0xf1c]        # 0x140003088
   14000216c:	ff 25 0e 0f 00 00    	jmp    QWORD PTR [rip+0xf0e]        # 0x140003080
   140002172:	ff 25 20 0f 00 00    	jmp    QWORD PTR [rip+0xf20]        # 0x140003098
   140002178:	ff 25 8a 0f 00 00    	jmp    QWORD PTR [rip+0xf8a]        # 0x140003108
   14000217e:	ff 25 ac 0f 00 00    	jmp    QWORD PTR [rip+0xfac]        # 0x140003130
   140002184:	ff 25 e6 0f 00 00    	jmp    QWORD PTR [rip+0xfe6]        # 0x140003170
   14000218a:	ff 25 48 0f 00 00    	jmp    QWORD PTR [rip+0xf48]        # 0x1400030d8
   140002190:	ff 25 ca 0f 00 00    	jmp    QWORD PTR [rip+0xfca]        # 0x140003160
   140002196:	ff 25 bc 0f 00 00    	jmp    QWORD PTR [rip+0xfbc]        # 0x140003158
   14000219c:	ff 25 ae 0f 00 00    	jmp    QWORD PTR [rip+0xfae]        # 0x140003150
   1400021a2:	ff 25 a0 0f 00 00    	jmp    QWORD PTR [rip+0xfa0]        # 0x140003148
   1400021a8:	ff 25 92 0f 00 00    	jmp    QWORD PTR [rip+0xf92]        # 0x140003140
   1400021ae:	ff 25 84 0f 00 00    	jmp    QWORD PTR [rip+0xf84]        # 0x140003138
   1400021b4:	ff 25 e6 0f 00 00    	jmp    QWORD PTR [rip+0xfe6]        # 0x1400031a0
   1400021ba:	ff 25 68 0f 00 00    	jmp    QWORD PTR [rip+0xf68]        # 0x140003128
   1400021c0:	ff 25 2a 0f 00 00    	jmp    QWORD PTR [rip+0xf2a]        # 0x1400030f0
   1400021c6:	ff 25 9c 0f 00 00    	jmp    QWORD PTR [rip+0xf9c]        # 0x140003168
   1400021cc:	ff 25 46 0f 00 00    	jmp    QWORD PTR [rip+0xf46]        # 0x140003118
   1400021d2:	ff 25 38 0f 00 00    	jmp    QWORD PTR [rip+0xf38]        # 0x140003110
   1400021d8:	ff 25 ea 0e 00 00    	jmp    QWORD PTR [rip+0xeea]        # 0x1400030c8
   1400021de:	ff 25 d4 0e 00 00    	jmp    QWORD PTR [rip+0xed4]        # 0x1400030b8
   1400021e4:	ff 25 ae 0f 00 00    	jmp    QWORD PTR [rip+0xfae]        # 0x140003198
   1400021ea:	ff 25 30 0f 00 00    	jmp    QWORD PTR [rip+0xf30]        # 0x140003120
   1400021f0:	ff 25 f2 0e 00 00    	jmp    QWORD PTR [rip+0xef2]        # 0x1400030e8
   1400021f6:	ff 25 fc 0e 00 00    	jmp    QWORD PTR [rip+0xefc]        # 0x1400030f8
   1400021fc:	ff 25 fe 0e 00 00    	jmp    QWORD PTR [rip+0xefe]        # 0x140003100
   140002202:	cc                   	int3   
   140002203:	cc                   	int3   
   140002204:	48 83 ec 28          	sub    rsp,0x28
   140002208:	4d 8b 41 38          	mov    r8,QWORD PTR [r9+0x38]
   14000220c:	48 8b ca             	mov    rcx,rdx
   14000220f:	49 8b d1             	mov    rdx,r9
   140002212:	e8 0d 00 00 00       	call   0x140002224
   140002217:	b8 01 00 00 00       	mov    eax,0x1
   14000221c:	48 83 c4 28          	add    rsp,0x28
   140002220:	c3                   	ret    
   140002221:	cc                   	int3   
   140002222:	cc                   	int3   
   140002223:	cc                   	int3   
   140002224:	40 53                	rex push rbx
   140002226:	45 8b 18             	mov    r11d,DWORD PTR [r8]
   140002229:	48 8b da             	mov    rbx,rdx
   14000222c:	41 83 e3 f8          	and    r11d,0xfffffff8
   140002230:	4c 8b c9             	mov    r9,rcx
   140002233:	41 f6 00 04          	test   BYTE PTR [r8],0x4
   140002237:	4c 8b d1             	mov    r10,rcx
   14000223a:	74 13                	je     0x14000224f
   14000223c:	41 8b 40 08          	mov    eax,DWORD PTR [r8+0x8]
   140002240:	4d 63 50 04          	movsxd r10,DWORD PTR [r8+0x4]
   140002244:	f7 d8                	neg    eax
   140002246:	4c 03 d1             	add    r10,rcx
   140002249:	48 63 c8             	movsxd rcx,eax
   14000224c:	4c 23 d1             	and    r10,rcx
   14000224f:	49 63 c3             	movsxd rax,r11d
   140002252:	4a 8b 14 10          	mov    rdx,QWORD PTR [rax+r10*1]
   140002256:	48 8b 43 10          	mov    rax,QWORD PTR [rbx+0x10]
   14000225a:	8b 48 08             	mov    ecx,DWORD PTR [rax+0x8]
   14000225d:	48 8b 43 08          	mov    rax,QWORD PTR [rbx+0x8]
   140002261:	f6 44 01 03 0f       	test   BYTE PTR [rcx+rax*1+0x3],0xf
   140002266:	74 0b                	je     0x140002273
   140002268:	0f b6 44 01 03       	movzx  eax,BYTE PTR [rcx+rax*1+0x3]
   14000226d:	83 e0 f0             	and    eax,0xfffffff0
   140002270:	4c 03 c8             	add    r9,rax
   140002273:	4c 33 ca             	xor    r9,rdx
   140002276:	49 8b c9             	mov    rcx,r9
   140002279:	5b                   	pop    rbx
   14000227a:	e9 21 f3 ff ff       	jmp    0x1400015a0
   14000227f:	ff 25 1b 0e 00 00    	jmp    QWORD PTR [rip+0xe1b]        # 0x1400030a0
   140002285:	cc                   	int3   
   140002286:	cc                   	int3   
   140002287:	cc                   	int3   
   140002288:	cc                   	int3   
   140002289:	cc                   	int3   
   14000228a:	cc                   	int3   
   14000228b:	cc                   	int3   
   14000228c:	cc                   	int3   
   14000228d:	cc                   	int3   
   14000228e:	cc                   	int3   
   14000228f:	cc                   	int3   
   140002290:	cc                   	int3   
   140002291:	cc                   	int3   
   140002292:	cc                   	int3   
   140002293:	cc                   	int3   
   140002294:	cc                   	int3   
   140002295:	cc                   	int3   
   140002296:	66 66 0f 1f 84 00 00 	data16 nop WORD PTR [rax+rax*1+0x0]
   14000229d:	00 00 00 
   1400022a0:	ff e0                	jmp    rax
   1400022a2:	cc                   	int3   
   1400022a3:	cc                   	int3   
   1400022a4:	cc                   	int3   
   1400022a5:	cc                   	int3   
   1400022a6:	cc                   	int3   
   1400022a7:	cc                   	int3   
   1400022a8:	cc                   	int3   
   1400022a9:	cc                   	int3   
   1400022aa:	cc                   	int3   
   1400022ab:	cc                   	int3   
   1400022ac:	cc                   	int3   
   1400022ad:	cc                   	int3   
   1400022ae:	cc                   	int3   
   1400022af:	cc                   	int3   
   1400022b0:	cc                   	int3   
   1400022b1:	cc                   	int3   
   1400022b2:	cc                   	int3   
   1400022b3:	cc                   	int3   
   1400022b4:	cc                   	int3   
   1400022b5:	cc                   	int3   
   1400022b6:	66 66 0f 1f 84 00 00 	data16 nop WORD PTR [rax+rax*1+0x0]
   1400022bd:	00 00 00 
   1400022c0:	ff 25 fa 0e 00 00    	jmp    QWORD PTR [rip+0xefa]        # 0x1400031c0
   1400022c6:	40 55                	rex push rbp
   1400022c8:	48 83 ec 20          	sub    rsp,0x20
   1400022cc:	48 8b ea             	mov    rbp,rdx
   1400022cf:	48 8b 01             	mov    rax,QWORD PTR [rcx]
   1400022d2:	48 8b d1             	mov    rdx,rcx
   1400022d5:	8b 08                	mov    ecx,DWORD PTR [rax]
   1400022d7:	e8 a2 fe ff ff       	call   0x14000217e
   1400022dc:	90                   	nop
   1400022dd:	48 83 c4 20          	add    rsp,0x20
   1400022e1:	5d                   	pop    rbp
   1400022e2:	c3                   	ret    
   1400022e3:	cc                   	int3   
   1400022e4:	40 55                	rex push rbp
   1400022e6:	48 8b ea             	mov    rbp,rdx
   1400022e9:	48 8b 01             	mov    rax,QWORD PTR [rcx]
   1400022ec:	33 c9                	xor    ecx,ecx
   1400022ee:	81 38 05 00 00 c0    	cmp    DWORD PTR [rax],0xc0000005
   1400022f4:	0f 94 c1             	sete   cl
   1400022f7:	8b c1                	mov    eax,ecx
   1400022f9:	5d                   	pop    rbp
   1400022fa:	c3                   	ret    
   1400022fb:	cc                   	int3   
