
keygenme.exe:     file format pei-i386


Disassembly of section .text:

00401000 <.text>:
  401000:	68 b0 2e 40 00       	push   0x402eb0
  401005:	e8 57 12 00 00       	call   0x402261
  40100a:	59                   	pop    ecx
  40100b:	c3                   	ret
  40100c:	68 07 2f 40 00       	push   0x402f07
  401011:	e8 4b 12 00 00       	call   0x402261
  401016:	59                   	pop    ecx
  401017:	c3                   	ret
  401018:	cc                   	int3
  401019:	cc                   	int3
  40101a:	cc                   	int3
  40101b:	cc                   	int3
  40101c:	cc                   	int3
  40101d:	cc                   	int3
  40101e:	cc                   	int3
  40101f:	cc                   	int3
  401020:	55                   	push   ebp
  401021:	8b ec                	mov    ebp,esp
  401023:	56                   	push   esi
  401024:	8b f1                	mov    esi,ecx
  401026:	0f 57 c0             	xorps  xmm0,xmm0
  401029:	8d 46 04             	lea    eax,[esi+0x4]
  40102c:	50                   	push   eax
  40102d:	c7 06 a4 31 40 00    	mov    DWORD PTR [esi],0x4031a4
  401033:	66 0f d6 00          	movq   QWORD PTR [eax],xmm0
  401037:	8b 45 08             	mov    eax,DWORD PTR [ebp+0x8]
  40103a:	83 c0 04             	add    eax,0x4
  40103d:	50                   	push   eax
  40103e:	ff 15 ac 30 40 00    	call   DWORD PTR ds:0x4030ac
  401044:	83 c4 08             	add    esp,0x8
  401047:	8b c6                	mov    eax,esi
  401049:	5e                   	pop    esi
  40104a:	5d                   	pop    ebp
  40104b:	c2 04 00             	ret    0x4
  40104e:	cc                   	int3
  40104f:	cc                   	int3
  401050:	8b 49 04             	mov    ecx,DWORD PTR [ecx+0x4]
  401053:	b8 d4 31 40 00       	mov    eax,0x4031d4
  401058:	85 c9                	test   ecx,ecx
  40105a:	0f 45 c1             	cmovne eax,ecx
  40105d:	c3                   	ret
  40105e:	cc                   	int3
  40105f:	cc                   	int3
  401060:	55                   	push   ebp
  401061:	8b ec                	mov    ebp,esp
  401063:	56                   	push   esi
  401064:	8b f1                	mov    esi,ecx
  401066:	8d 46 04             	lea    eax,[esi+0x4]
  401069:	c7 06 a4 31 40 00    	mov    DWORD PTR [esi],0x4031a4
  40106f:	50                   	push   eax
  401070:	ff 15 b0 30 40 00    	call   DWORD PTR ds:0x4030b0
  401076:	83 c4 04             	add    esp,0x4
  401079:	f6 45 08 01          	test   BYTE PTR [ebp+0x8],0x1
  40107d:	74 0b                	je     0x40108a
  40107f:	6a 0c                	push   0xc
  401081:	56                   	push   esi
  401082:	e8 ef 11 00 00       	call   0x402276
  401087:	83 c4 08             	add    esp,0x8
  40108a:	8b c6                	mov    eax,esi
  40108c:	5e                   	pop    esi
  40108d:	5d                   	pop    ebp
  40108e:	c2 04 00             	ret    0x4
  401091:	cc                   	int3
  401092:	cc                   	int3
  401093:	cc                   	int3
  401094:	cc                   	int3
  401095:	cc                   	int3
  401096:	cc                   	int3
  401097:	cc                   	int3
  401098:	cc                   	int3
  401099:	cc                   	int3
  40109a:	cc                   	int3
  40109b:	cc                   	int3
  40109c:	cc                   	int3
  40109d:	cc                   	int3
  40109e:	cc                   	int3
  40109f:	cc                   	int3
  4010a0:	8d 41 04             	lea    eax,[ecx+0x4]
  4010a3:	c7 01 a4 31 40 00    	mov    DWORD PTR [ecx],0x4031a4
  4010a9:	50                   	push   eax
  4010aa:	ff 15 b0 30 40 00    	call   DWORD PTR ds:0x4030b0
  4010b0:	59                   	pop    ecx
  4010b1:	c3                   	ret
  4010b2:	cc                   	int3
  4010b3:	cc                   	int3
  4010b4:	cc                   	int3
  4010b5:	cc                   	int3
  4010b6:	cc                   	int3
  4010b7:	cc                   	int3
  4010b8:	cc                   	int3
  4010b9:	cc                   	int3
  4010ba:	cc                   	int3
  4010bb:	cc                   	int3
  4010bc:	cc                   	int3
  4010bd:	cc                   	int3
  4010be:	cc                   	int3
  4010bf:	cc                   	int3
  4010c0:	0f 57 c0             	xorps  xmm0,xmm0
  4010c3:	8b c1                	mov    eax,ecx
  4010c5:	66 0f d6 41 04       	movq   QWORD PTR [ecx+0x4],xmm0
  4010ca:	c7 41 04 e8 31 40 00 	mov    DWORD PTR [ecx+0x4],0x4031e8
  4010d1:	c7 01 cc 31 40 00    	mov    DWORD PTR [ecx],0x4031cc
  4010d7:	c3                   	ret
  4010d8:	cc                   	int3
  4010d9:	cc                   	int3
  4010da:	cc                   	int3
  4010db:	cc                   	int3
  4010dc:	cc                   	int3
  4010dd:	cc                   	int3
  4010de:	cc                   	int3
  4010df:	cc                   	int3
  4010e0:	55                   	push   ebp
  4010e1:	8b ec                	mov    ebp,esp
  4010e3:	83 ec 0c             	sub    esp,0xc
  4010e6:	8d 4d f4             	lea    ecx,[ebp-0xc]
  4010e9:	e8 d2 ff ff ff       	call   0x4010c0
  4010ee:	68 48 3b 40 00       	push   0x403b48
  4010f3:	8d 45 f4             	lea    eax,[ebp-0xc]
  4010f6:	50                   	push   eax
  4010f7:	e8 01 1b 00 00       	call   0x402bfd
  4010fc:	cc                   	int3
  4010fd:	cc                   	int3
  4010fe:	cc                   	int3
  4010ff:	cc                   	int3
  401100:	55                   	push   ebp
  401101:	8b ec                	mov    ebp,esp
  401103:	56                   	push   esi
  401104:	8b f1                	mov    esi,ecx
  401106:	0f 57 c0             	xorps  xmm0,xmm0
  401109:	8d 46 04             	lea    eax,[esi+0x4]
  40110c:	50                   	push   eax
  40110d:	c7 06 a4 31 40 00    	mov    DWORD PTR [esi],0x4031a4
  401113:	66 0f d6 00          	movq   QWORD PTR [eax],xmm0
  401117:	8b 45 08             	mov    eax,DWORD PTR [ebp+0x8]
  40111a:	83 c0 04             	add    eax,0x4
  40111d:	50                   	push   eax
  40111e:	ff 15 ac 30 40 00    	call   DWORD PTR ds:0x4030ac
  401124:	83 c4 08             	add    esp,0x8
  401127:	c7 06 cc 31 40 00    	mov    DWORD PTR [esi],0x4031cc
  40112d:	8b c6                	mov    eax,esi
  40112f:	5e                   	pop    esi
  401130:	5d                   	pop    ebp
  401131:	c2 04 00             	ret    0x4
  401134:	cc                   	int3
  401135:	cc                   	int3
  401136:	cc                   	int3
  401137:	cc                   	int3
  401138:	cc                   	int3
  401139:	cc                   	int3
  40113a:	cc                   	int3
  40113b:	cc                   	int3
  40113c:	cc                   	int3
  40113d:	cc                   	int3
  40113e:	cc                   	int3
  40113f:	cc                   	int3
  401140:	55                   	push   ebp
  401141:	8b ec                	mov    ebp,esp
  401143:	56                   	push   esi
  401144:	8b f1                	mov    esi,ecx
  401146:	0f 57 c0             	xorps  xmm0,xmm0
  401149:	8d 46 04             	lea    eax,[esi+0x4]
  40114c:	50                   	push   eax
  40114d:	c7 06 a4 31 40 00    	mov    DWORD PTR [esi],0x4031a4
  401153:	66 0f d6 00          	movq   QWORD PTR [eax],xmm0
  401157:	8b 45 08             	mov    eax,DWORD PTR [ebp+0x8]
  40115a:	83 c0 04             	add    eax,0x4
  40115d:	50                   	push   eax
  40115e:	ff 15 ac 30 40 00    	call   DWORD PTR ds:0x4030ac
  401164:	83 c4 08             	add    esp,0x8
  401167:	c7 06 b0 31 40 00    	mov    DWORD PTR [esi],0x4031b0
  40116d:	8b c6                	mov    eax,esi
  40116f:	5e                   	pop    esi
  401170:	5d                   	pop    ebp
  401171:	c2 04 00             	ret    0x4
  401174:	cc                   	int3
  401175:	cc                   	int3
  401176:	cc                   	int3
  401177:	cc                   	int3
  401178:	cc                   	int3
  401179:	cc                   	int3
  40117a:	cc                   	int3
  40117b:	cc                   	int3
  40117c:	cc                   	int3
  40117d:	cc                   	int3
  40117e:	cc                   	int3
  40117f:	cc                   	int3
  401180:	68 00 32 40 00       	push   0x403200
  401185:	ff 15 68 30 40 00    	call   DWORD PTR ds:0x403068
  40118b:	cc                   	int3
  40118c:	cc                   	int3
  40118d:	cc                   	int3
  40118e:	cc                   	int3
  40118f:	cc                   	int3
  401190:	0f 57 c0             	xorps  xmm0,xmm0
  401193:	8b c1                	mov    eax,ecx
  401195:	66 0f d6 41 04       	movq   QWORD PTR [ecx+0x4],xmm0
  40119a:	c7 41 04 10 32 40 00 	mov    DWORD PTR [ecx+0x4],0x403210
  4011a1:	c7 01 54 32 40 00    	mov    DWORD PTR [ecx],0x403254
  4011a7:	c3                   	ret
  4011a8:	cc                   	int3
  4011a9:	cc                   	int3
  4011aa:	cc                   	int3
  4011ab:	cc                   	int3
  4011ac:	cc                   	int3
  4011ad:	cc                   	int3
  4011ae:	cc                   	int3
  4011af:	cc                   	int3
  4011b0:	55                   	push   ebp
  4011b1:	8b ec                	mov    ebp,esp
  4011b3:	83 ec 0c             	sub    esp,0xc
  4011b6:	8d 4d f4             	lea    ecx,[ebp-0xc]
  4011b9:	e8 d2 ff ff ff       	call   0x401190
  4011be:	68 1c 3b 40 00       	push   0x403b1c
  4011c3:	8b c1                	mov    eax,ecx
  4011c5:	50                   	push   eax
  4011c6:	e8 32 1a 00 00       	call   0x402bfd
  4011cb:	cc                   	int3
  4011cc:	cc                   	int3
  4011cd:	cc                   	int3
  4011ce:	cc                   	int3
  4011cf:	cc                   	int3
  4011d0:	55                   	push   ebp
  4011d1:	8b ec                	mov    ebp,esp
  4011d3:	56                   	push   esi
  4011d4:	8b f1                	mov    esi,ecx
  4011d6:	0f 57 c0             	xorps  xmm0,xmm0
  4011d9:	8d 46 04             	lea    eax,[esi+0x4]
  4011dc:	50                   	push   eax
  4011dd:	c7 06 a4 31 40 00    	mov    DWORD PTR [esi],0x4031a4
  4011e3:	66 0f d6 00          	movq   QWORD PTR [eax],xmm0
  4011e7:	8b 45 08             	mov    eax,DWORD PTR [ebp+0x8]
  4011ea:	83 c0 04             	add    eax,0x4
  4011ed:	50                   	push   eax
  4011ee:	ff 15 ac 30 40 00    	call   DWORD PTR ds:0x4030ac
  4011f4:	83 c4 08             	add    esp,0x8
  4011f7:	c7 06 54 32 40 00    	mov    DWORD PTR [esi],0x403254
  4011fd:	8b c6                	mov    eax,esi
  4011ff:	5e                   	pop    esi
  401200:	5d                   	pop    ebp
  401201:	c2 04 00             	ret    0x4
  401204:	cc                   	int3
  401205:	cc                   	int3
  401206:	cc                   	int3
  401207:	cc                   	int3
  401208:	cc                   	int3
  401209:	cc                   	int3
  40120a:	cc                   	int3
  40120b:	cc                   	int3
  40120c:	cc                   	int3
  40120d:	cc                   	int3
  40120e:	cc                   	int3
  40120f:	cc                   	int3
  401210:	8b 49 04             	mov    ecx,DWORD PTR [ecx+0x4]
  401213:	85 c9                	test   ecx,ecx
  401215:	74 11                	je     0x401228
  401217:	8b 01                	mov    eax,DWORD PTR [ecx]
  401219:	ff 50 08             	call   DWORD PTR [eax+0x8]
  40121c:	85 c0                	test   eax,eax
  40121e:	74 08                	je     0x401228
  401220:	8b 10                	mov    edx,DWORD PTR [eax]
  401222:	8b c8                	mov    ecx,eax
  401224:	6a 01                	push   0x1
  401226:	ff 12                	call   DWORD PTR [edx]
  401228:	c3                   	ret
  401229:	cc                   	int3
  40122a:	cc                   	int3
  40122b:	cc                   	int3
  40122c:	cc                   	int3
  40122d:	cc                   	int3
  40122e:	cc                   	int3
  40122f:	cc                   	int3
  401230:	55                   	push   ebp
  401231:	8b ec                	mov    ebp,esp
  401233:	83 ec 14             	sub    esp,0x14
  401236:	33 c9                	xor    ecx,ecx
  401238:	53                   	push   ebx
  401239:	8b 5d 08             	mov    ebx,DWORD PTR [ebp+0x8]
  40123c:	56                   	push   esi
  40123d:	8b 75 18             	mov    esi,DWORD PTR [ebp+0x18]
  401240:	57                   	push   edi
  401241:	8b 7d 1c             	mov    edi,DWORD PTR [ebp+0x1c]
  401244:	85 f6                	test   esi,esi
  401246:	74 1c                	je     0x401264
  401248:	8b 15 40 54 40 00    	mov    edx,DWORD PTR ds:0x405440
  40124e:	66 90                	xchg   ax,ax
  401250:	83 ff 10             	cmp    edi,0x10
  401253:	8d 45 08             	lea    eax,[ebp+0x8]
  401256:	0f 43 c3             	cmovae eax,ebx
  401259:	0f be 04 08          	movsx  eax,BYTE PTR [eax+ecx*1]
  40125d:	41                   	inc    ecx
  40125e:	03 d0                	add    edx,eax
  401260:	3b ce                	cmp    ecx,esi
  401262:	72 ec                	jb     0x401250
  401264:	33 c0                	xor    eax,eax
  401266:	89 45 f4             	mov    DWORD PTR [ebp-0xc],eax
  401269:	85 f6                	test   esi,esi
  40126b:	0f 84 37 01 00 00    	je     0x4013a8
  401271:	89 45 fc             	mov    DWORD PTR [ebp-0x4],eax
  401274:	eb 0d                	jmp    0x401283
  401276:	66 66 0f 1f 84 00 00 	data16 nop WORD PTR [eax+eax*1+0x0]
  40127d:	00 00 00 
  401280:	8b 7d 1c             	mov    edi,DWORD PTR [ebp+0x1c]
  401283:	83 ff 10             	cmp    edi,0x10
  401286:	f2 0f 10 05 60 32 40 	movsd  xmm0,QWORD PTR ds:0x403260
  40128d:	00 
  40128e:	8d 75 08             	lea    esi,[ebp+0x8]
  401291:	0f 43 f3             	cmovae esi,ebx
  401294:	8d 4d 08             	lea    ecx,[ebp+0x8]
  401297:	0f 43 cb             	cmovae ecx,ebx
  40129a:	8d 45 08             	lea    eax,[ebp+0x8]
  40129d:	0f 43 c3             	cmovae eax,ebx
  4012a0:	8d 55 08             	lea    edx,[ebp+0x8]
  4012a3:	0f 43 d3             	cmovae edx,ebx
  4012a6:	8b 5d f4             	mov    ebx,DWORD PTR [ebp-0xc]
  4012a9:	0f be 04 18          	movsx  eax,BYTE PTR [eax+ebx*1]
  4012ad:	0f be 0c 19          	movsx  ecx,BYTE PTR [ecx+ebx*1]
  4012b1:	03 c8                	add    ecx,eax
  4012b3:	0f be 04 1a          	movsx  eax,BYTE PTR [edx+ebx*1]
  4012b7:	05 ea 00 00 00       	add    eax,0xea
  4012bc:	33 c8                	xor    ecx,eax
  4012be:	66 0f 6e c9          	movd   xmm1,ecx
  4012c2:	f3 0f e6 c9          	cvtdq2pd xmm1,xmm1
  4012c6:	e8 bc 1a 00 00       	call   0x402d87
  4012cb:	0f be 04 1e          	movsx  eax,BYTE PTR [esi+ebx*1]
  4012cf:	33 f6                	xor    esi,esi
  4012d1:	89 75 f8             	mov    DWORD PTR [ebp-0x8],esi
  4012d4:	66 0f 6e c8          	movd   xmm1,eax
  4012d8:	f3 0f e6 c9          	cvtdq2pd xmm1,xmm1
  4012dc:	f2 0f 58 c1          	addsd  xmm0,xmm1
  4012e0:	66 0f 6e 4d fc       	movd   xmm1,DWORD PTR [ebp-0x4]
  4012e5:	f3 0f e6 c9          	cvtdq2pd xmm1,xmm1
  4012e9:	f2 0f 58 c1          	addsd  xmm0,xmm1
  4012ed:	f2 0f 2c c0          	cvttsd2si eax,xmm0
  4012f1:	89 45 fc             	mov    DWORD PTR [ebp-0x4],eax
  4012f4:	eb 06                	jmp    0x4012fc
  4012f6:	8b 7d 1c             	mov    edi,DWORD PTR [ebp+0x1c]
  4012f9:	8b 75 f8             	mov    esi,DWORD PTR [ebp-0x8]
  4012fc:	8b 55 08             	mov    edx,DWORD PTR [ebp+0x8]
  4012ff:	8d 45 08             	lea    eax,[ebp+0x8]
  401302:	83 ff 10             	cmp    edi,0x10
  401305:	8d 4d 08             	lea    ecx,[ebp+0x8]
  401308:	8d 5d 08             	lea    ebx,[ebp+0x8]
  40130b:	0f 43 c2             	cmovae eax,edx
  40130e:	8d 7d 08             	lea    edi,[ebp+0x8]
  401311:	0f 43 ca             	cmovae ecx,edx
  401314:	0f 43 da             	cmovae ebx,edx
  401317:	83 7d 1c 10          	cmp    DWORD PTR [ebp+0x1c],0x10
  40131b:	0f be 04 30          	movsx  eax,BYTE PTR [eax+esi*1]
  40131f:	0f 43 fa             	cmovae edi,edx
  401322:	0f be 0c 31          	movsx  ecx,BYTE PTR [ecx+esi*1]
  401326:	03 c1                	add    eax,ecx
  401328:	99                   	cdq
  401329:	8b f0                	mov    esi,eax
  40132b:	8b ca                	mov    ecx,edx
  40132d:	8b 45 f8             	mov    eax,DWORD PTR [ebp-0x8]
  401330:	0f be 04 07          	movsx  eax,BYTE PTR [edi+eax*1]
  401334:	99                   	cdq
  401335:	05 cc d5 1e 10       	add    eax,0x101ed5cc
  40133a:	83 d2 01             	adc    edx,0x1
  40133d:	33 f0                	xor    esi,eax
  40133f:	33 d1                	xor    edx,ecx
  401341:	8b ce                	mov    ecx,esi
  401343:	e8 f8 19 00 00       	call   0x402d40
  401348:	0f 28 c8             	movaps xmm1,xmm0
  40134b:	f2 0f 10 05 70 32 40 	movsd  xmm0,QWORD PTR ds:0x403270
  401352:	00 
  401353:	e8 2f 1a 00 00       	call   0x402d87
  401358:	8b 4d f8             	mov    ecx,DWORD PTR [ebp-0x8]
  40135b:	8b 75 18             	mov    esi,DWORD PTR [ebp+0x18]
  40135e:	0f be 04 0b          	movsx  eax,BYTE PTR [ebx+ecx*1]
  401362:	41                   	inc    ecx
  401363:	89 4d f8             	mov    DWORD PTR [ebp-0x8],ecx
  401366:	66 0f 6e c8          	movd   xmm1,eax
  40136a:	f3 0f e6 c9          	cvtdq2pd xmm1,xmm1
  40136e:	f2 0f 58 c1          	addsd  xmm0,xmm1
  401372:	66 0f 6e 4d fc       	movd   xmm1,DWORD PTR [ebp-0x4]
  401377:	f3 0f e6 c9          	cvtdq2pd xmm1,xmm1
  40137b:	f2 0f 58 05 80 32 40 	addsd  xmm0,QWORD PTR ds:0x403280
  401382:	00 
  401383:	f2 0f 58 c1          	addsd  xmm0,xmm1
  401387:	f2 0f 2c c0          	cvttsd2si eax,xmm0
  40138b:	89 45 fc             	mov    DWORD PTR [ebp-0x4],eax
  40138e:	3b ce                	cmp    ecx,esi
  401390:	0f 82 60 ff ff ff    	jb     0x4012f6
  401396:	8b 45 f4             	mov    eax,DWORD PTR [ebp-0xc]
  401399:	8b 5d 08             	mov    ebx,DWORD PTR [ebp+0x8]
  40139c:	40                   	inc    eax
  40139d:	89 45 f4             	mov    DWORD PTR [ebp-0xc],eax
  4013a0:	3b c6                	cmp    eax,esi
  4013a2:	0f 82 d8 fe ff ff    	jb     0x401280
  4013a8:	33 ff                	xor    edi,edi
  4013aa:	33 c9                	xor    ecx,ecx
  4013ac:	85 f6                	test   esi,esi
  4013ae:	0f 84 03 02 00 00    	je     0x4015b7
  4013b4:	8b 55 1c             	mov    edx,DWORD PTR [ebp+0x1c]
  4013b7:	83 fa 10             	cmp    edx,0x10
  4013ba:	8d 45 08             	lea    eax,[ebp+0x8]
  4013bd:	0f 43 c3             	cmovae eax,ebx
  4013c0:	0f be 04 08          	movsx  eax,BYTE PTR [eax+ecx*1]
  4013c4:	41                   	inc    ecx
  4013c5:	03 f8                	add    edi,eax
  4013c7:	3b ce                	cmp    ecx,esi
  4013c9:	72 ec                	jb     0x4013b7
  4013cb:	89 75 f0             	mov    DWORD PTR [ebp-0x10],esi
  4013ce:	66 90                	xchg   ax,ax
  4013d0:	c7 45 fc 00 00 00 00 	mov    DWORD PTR [ebp-0x4],0x0
  4013d7:	66 0f 1f 84 00 00 00 	nop    WORD PTR [eax+eax*1+0x0]
  4013de:	00 00 
  4013e0:	83 fa 10             	cmp    edx,0x10
  4013e3:	f2 0f 10 05 a8 32 40 	movsd  xmm0,QWORD PTR ds:0x4032a8
  4013ea:	00 
  4013eb:	8b 55 fc             	mov    edx,DWORD PTR [ebp-0x4]
  4013ee:	8d 45 08             	lea    eax,[ebp+0x8]
  4013f1:	0f 43 c3             	cmovae eax,ebx
  4013f4:	8d 4d 08             	lea    ecx,[ebp+0x8]
  4013f7:	0f 43 cb             	cmovae ecx,ebx
  4013fa:	8d 75 08             	lea    esi,[ebp+0x8]
  4013fd:	0f 43 f3             	cmovae esi,ebx
  401400:	8d 7d 08             	lea    edi,[ebp+0x8]
  401403:	0f 43 fb             	cmovae edi,ebx
  401406:	0f be 14 10          	movsx  edx,BYTE PTR [eax+edx*1]
  40140a:	8b 45 fc             	mov    eax,DWORD PTR [ebp-0x4]
  40140d:	81 c2 ec 0d 00 00    	add    edx,0xdec
  401413:	0f be 0c 01          	movsx  ecx,BYTE PTR [ecx+eax*1]
  401417:	0f be 04 06          	movsx  eax,BYTE PTR [esi+eax*1]
  40141b:	03 c8                	add    ecx,eax
  40141d:	33 d1                	xor    edx,ecx
  40141f:	66 0f 6e ca          	movd   xmm1,edx
  401423:	f3 0f e6 c9          	cvtdq2pd xmm1,xmm1
  401427:	e8 5b 19 00 00       	call   0x402d87
  40142c:	8b 45 fc             	mov    eax,DWORD PTR [ebp-0x4]
  40142f:	33 c9                	xor    ecx,ecx
  401431:	8b 55 1c             	mov    edx,DWORD PTR [ebp+0x1c]
  401434:	0f be 04 07          	movsx  eax,BYTE PTR [edi+eax*1]
  401438:	8b 7d 18             	mov    edi,DWORD PTR [ebp+0x18]
  40143b:	66 0f 6e c8          	movd   xmm1,eax
  40143f:	f3 0f e6 c9          	cvtdq2pd xmm1,xmm1
  401443:	f2 0f 58 c1          	addsd  xmm0,xmm1
  401447:	0f 57 c9             	xorps  xmm1,xmm1
  40144a:	f2 0f 58 05 80 32 40 	addsd  xmm0,QWORD PTR ds:0x403280
  401451:	00 
  401452:	f2 0f 58 c1          	addsd  xmm0,xmm1
  401456:	f2 0f 2c f0          	cvttsd2si esi,xmm0
  40145a:	66 0f 1f 44 00 00    	nop    WORD PTR [eax+eax*1+0x0]
  401460:	83 fa 10             	cmp    edx,0x10
  401463:	8d 45 08             	lea    eax,[ebp+0x8]
  401466:	0f 43 c3             	cmovae eax,ebx
  401469:	0f be 04 08          	movsx  eax,BYTE PTR [eax+ecx*1]
  40146d:	41                   	inc    ecx
  40146e:	03 f0                	add    esi,eax
  401470:	3b cf                	cmp    ecx,edi
  401472:	72 ec                	jb     0x401460
  401474:	83 fa 10             	cmp    edx,0x10
  401477:	f2 0f 10 05 a0 32 40 	movsd  xmm0,QWORD PTR ds:0x4032a0
  40147e:	00 
  40147f:	8b 55 fc             	mov    edx,DWORD PTR [ebp-0x4]
  401482:	8d 45 08             	lea    eax,[ebp+0x8]
  401485:	0f 43 c3             	cmovae eax,ebx
  401488:	8d 4d 08             	lea    ecx,[ebp+0x8]
  40148b:	0f 43 cb             	cmovae ecx,ebx
  40148e:	8d 75 08             	lea    esi,[ebp+0x8]
  401491:	0f 43 f3             	cmovae esi,ebx
  401494:	8d 7d 08             	lea    edi,[ebp+0x8]
  401497:	0f 43 fb             	cmovae edi,ebx
  40149a:	0f be 14 10          	movsx  edx,BYTE PTR [eax+edx*1]
  40149e:	8b 45 fc             	mov    eax,DWORD PTR [ebp-0x4]
  4014a1:	81 c2 0c 5c 00 00    	add    edx,0x5c0c
  4014a7:	0f be 0c 01          	movsx  ecx,BYTE PTR [ecx+eax*1]
  4014ab:	0f be 04 06          	movsx  eax,BYTE PTR [esi+eax*1]
  4014af:	03 c8                	add    ecx,eax
  4014b1:	33 d1                	xor    edx,ecx
  4014b3:	66 0f 6e ca          	movd   xmm1,edx
  4014b7:	f3 0f e6 c9          	cvtdq2pd xmm1,xmm1
  4014bb:	e8 c7 18 00 00       	call   0x402d87
  4014c0:	8b 45 fc             	mov    eax,DWORD PTR [ebp-0x4]
  4014c3:	c7 45 f8 00 00 00 00 	mov    DWORD PTR [ebp-0x8],0x0
  4014ca:	0f be 04 07          	movsx  eax,BYTE PTR [edi+eax*1]
  4014ce:	66 0f 6e c8          	movd   xmm1,eax
  4014d2:	f3 0f e6 c9          	cvtdq2pd xmm1,xmm1
  4014d6:	f2 0f 58 c1          	addsd  xmm0,xmm1
  4014da:	0f 57 c9             	xorps  xmm1,xmm1
  4014dd:	f2 0f 58 05 80 32 40 	addsd  xmm0,QWORD PTR ds:0x403280
  4014e4:	00 
  4014e5:	f2 0f 58 05 88 32 40 	addsd  xmm0,QWORD PTR ds:0x403288
  4014ec:	00 
  4014ed:	f2 0f 58 05 78 32 40 	addsd  xmm0,QWORD PTR ds:0x403278
  4014f4:	00 
  4014f5:	f2 0f 58 05 98 32 40 	addsd  xmm0,QWORD PTR ds:0x403298
  4014fc:	00 
  4014fd:	f2 0f 58 05 90 32 40 	addsd  xmm0,QWORD PTR ds:0x403290
  401504:	00 
  401505:	f2 0f 58 c1          	addsd  xmm0,xmm1
  401509:	f2 0f 2c c0          	cvttsd2si eax,xmm0
  40150d:	89 45 f4             	mov    DWORD PTR [ebp-0xc],eax
  401510:	83 7d 1c 10          	cmp    DWORD PTR [ebp+0x1c],0x10
  401514:	8d 45 08             	lea    eax,[ebp+0x8]
  401517:	8b 55 f8             	mov    edx,DWORD PTR [ebp-0x8]
  40151a:	8d 4d 08             	lea    ecx,[ebp+0x8]
  40151d:	0f 43 c3             	cmovae eax,ebx
  401520:	f2 0f 10 05 70 32 40 	movsd  xmm0,QWORD PTR ds:0x403270
  401527:	00 
  401528:	0f 43 cb             	cmovae ecx,ebx
  40152b:	8d 75 08             	lea    esi,[ebp+0x8]
  40152e:	0f 43 f3             	cmovae esi,ebx
  401531:	8d 7d 08             	lea    edi,[ebp+0x8]
  401534:	0f 43 fb             	cmovae edi,ebx
  401537:	0f be 14 10          	movsx  edx,BYTE PTR [eax+edx*1]
  40153b:	8b 45 f8             	mov    eax,DWORD PTR [ebp-0x8]
  40153e:	81 c2 0c 5c 00 00    	add    edx,0x5c0c
  401544:	0f be 0c 01          	movsx  ecx,BYTE PTR [ecx+eax*1]
  401548:	0f be 04 06          	movsx  eax,BYTE PTR [esi+eax*1]
  40154c:	03 c8                	add    ecx,eax
  40154e:	33 d1                	xor    edx,ecx
  401550:	66 0f 6e ca          	movd   xmm1,edx
  401554:	f3 0f e6 c9          	cvtdq2pd xmm1,xmm1
  401558:	e8 2a 18 00 00       	call   0x402d87
  40155d:	8b 4d f8             	mov    ecx,DWORD PTR [ebp-0x8]
  401560:	8b 75 18             	mov    esi,DWORD PTR [ebp+0x18]
  401563:	0f be 04 0f          	movsx  eax,BYTE PTR [edi+ecx*1]
  401567:	41                   	inc    ecx
  401568:	89 4d f8             	mov    DWORD PTR [ebp-0x8],ecx
  40156b:	66 0f 6e c8          	movd   xmm1,eax
  40156f:	f3 0f e6 c9          	cvtdq2pd xmm1,xmm1
  401573:	f2 0f 58 c1          	addsd  xmm0,xmm1
  401577:	66 0f 6e 4d f4       	movd   xmm1,DWORD PTR [ebp-0xc]
  40157c:	f3 0f e6 c9          	cvtdq2pd xmm1,xmm1
  401580:	f2 0f 58 05 68 32 40 	addsd  xmm0,QWORD PTR ds:0x403268
  401587:	00 
  401588:	f2 0f 58 c1          	addsd  xmm0,xmm1
  40158c:	f2 0f 2c c0          	cvttsd2si eax,xmm0
  401590:	89 45 f4             	mov    DWORD PTR [ebp-0xc],eax
  401593:	3b ce                	cmp    ecx,esi
  401595:	0f 82 75 ff ff ff    	jb     0x401510
  40159b:	8b 45 fc             	mov    eax,DWORD PTR [ebp-0x4]
  40159e:	8b 55 1c             	mov    edx,DWORD PTR [ebp+0x1c]
  4015a1:	40                   	inc    eax
  4015a2:	89 45 fc             	mov    DWORD PTR [ebp-0x4],eax
  4015a5:	3b c6                	cmp    eax,esi
  4015a7:	0f 82 33 fe ff ff    	jb     0x4013e0
  4015ad:	83 6d f0 01          	sub    DWORD PTR [ebp-0x10],0x1
  4015b1:	0f 85 19 fe ff ff    	jne    0x4013d0
  4015b7:	33 ff                	xor    edi,edi
  4015b9:	33 d2                	xor    edx,edx
  4015bb:	33 c0                	xor    eax,eax
  4015bd:	85 f6                	test   esi,esi
  4015bf:	74 19                	je     0x4015da
  4015c1:	8b 4d 1c             	mov    ecx,DWORD PTR [ebp+0x1c]
  4015c4:	83 f9 10             	cmp    ecx,0x10
  4015c7:	8d 45 08             	lea    eax,[ebp+0x8]
  4015ca:	0f 43 c3             	cmovae eax,ebx
  4015cd:	0f be 04 10          	movsx  eax,BYTE PTR [eax+edx*1]
  4015d1:	42                   	inc    edx
  4015d2:	03 f8                	add    edi,eax
  4015d4:	8b c7                	mov    eax,edi
  4015d6:	3b d6                	cmp    edx,esi
  4015d8:	72 ea                	jb     0x4015c4
  4015da:	83 f0 06             	xor    eax,0x6
  4015dd:	c7 05 40 54 40 00 00 	mov    DWORD PTR ds:0x405440,0x0
  4015e4:	00 00 00 
  4015e7:	69 f0 98 04 00 00    	imul   esi,eax,0x498
  4015ed:	8b 45 1c             	mov    eax,DWORD PTR [ebp+0x1c]
  4015f0:	83 f6 07             	xor    esi,0x7
  4015f3:	83 f8 10             	cmp    eax,0x10
  4015f6:	72 2d                	jb     0x401625
  4015f8:	8d 48 01             	lea    ecx,[eax+0x1]
  4015fb:	8b c3                	mov    eax,ebx
  4015fd:	81 f9 00 10 00 00    	cmp    ecx,0x1000
  401603:	72 16                	jb     0x40161b
  401605:	8b 5b fc             	mov    ebx,DWORD PTR [ebx-0x4]
  401608:	83 c1 23             	add    ecx,0x23
  40160b:	2b c3                	sub    eax,ebx
  40160d:	83 c0 fc             	add    eax,0xfffffffc
  401610:	83 f8 1f             	cmp    eax,0x1f
  401613:	76 06                	jbe    0x40161b
  401615:	ff 15 f4 30 40 00    	call   DWORD PTR ds:0x4030f4
  40161b:	51                   	push   ecx
  40161c:	53                   	push   ebx
  40161d:	e8 54 0c 00 00       	call   0x402276
  401622:	83 c4 08             	add    esp,0x8
  401625:	5f                   	pop    edi
  401626:	8b c6                	mov    eax,esi
  401628:	5e                   	pop    esi
  401629:	5b                   	pop    ebx
  40162a:	8b e5                	mov    esp,ebp
  40162c:	5d                   	pop    ebp
  40162d:	c3                   	ret
  40162e:	cc                   	int3
  40162f:	cc                   	int3
  401630:	55                   	push   ebp
  401631:	8b ec                	mov    ebp,esp
  401633:	83 e4 f8             	and    esp,0xfffffff8
  401636:	51                   	push   ecx
  401637:	8b 0d 80 30 40 00    	mov    ecx,DWORD PTR ds:0x403080
  40163d:	ba 1c 32 40 00       	mov    edx,0x40321c
  401642:	53                   	push   ebx
  401643:	56                   	push   esi
  401644:	57                   	push   edi
  401645:	e8 b6 03 00 00       	call   0x401a00
  40164a:	8b 0d 74 30 40 00    	mov    ecx,DWORD PTR ds:0x403074
  401650:	e8 4b 07 00 00       	call   0x401da0
  401655:	8b 0d 80 30 40 00    	mov    ecx,DWORD PTR ds:0x403080
  40165b:	ba 2c 32 40 00       	mov    edx,0x40322c
  401660:	e8 9b 03 00 00       	call   0x401a00
  401665:	8b 0d 74 30 40 00    	mov    ecx,DWORD PTR ds:0x403074
  40166b:	68 3c 54 40 00       	push   0x40543c
  401670:	ff 15 88 30 40 00    	call   DWORD PTR ds:0x403088
  401676:	83 ec 18             	sub    esp,0x18
  401679:	b8 18 50 40 00       	mov    eax,0x405018
  40167e:	8b fc                	mov    edi,esp
  401680:	c7 47 10 00 00 00 00 	mov    DWORD PTR [edi+0x10],0x0
  401687:	c7 47 14 00 00 00 00 	mov    DWORD PTR [edi+0x14],0x0
  40168e:	83 3d 2c 50 40 00 10 	cmp    DWORD PTR ds:0x40502c,0x10
  401695:	8b 1d 28 50 40 00    	mov    ebx,DWORD PTR ds:0x405028
  40169b:	0f 43 05 18 50 40 00 	cmovae eax,DWORD PTR ds:0x405018
  4016a2:	89 44 24 24          	mov    DWORD PTR [esp+0x24],eax
  4016a6:	83 fb 10             	cmp    ebx,0x10
  4016a9:	73 0d                	jae    0x4016b8
  4016ab:	0f 10 00             	movups xmm0,XMMWORD PTR [eax]
  4016ae:	be 0f 00 00 00       	mov    esi,0xf
  4016b3:	0f 11 07             	movups XMMWORD PTR [edi],xmm0
  4016b6:	eb 68                	jmp    0x401720
  4016b8:	8b f3                	mov    esi,ebx
  4016ba:	b8 ff ff ff 7f       	mov    eax,0x7fffffff
  4016bf:	83 ce 0f             	or     esi,0xf
  4016c2:	3b f0                	cmp    esi,eax
  4016c4:	0f 47 f0             	cmova  esi,eax
  4016c7:	8d 46 01             	lea    eax,[esi+0x1]
  4016ca:	3d 00 10 00 00       	cmp    eax,0x1000
  4016cf:	72 29                	jb     0x4016fa
  4016d1:	8d 48 23             	lea    ecx,[eax+0x23]
  4016d4:	3b c8                	cmp    ecx,eax
  4016d6:	0f 86 9d 00 00 00    	jbe    0x401779
  4016dc:	51                   	push   ecx
  4016dd:	e8 13 09 00 00       	call   0x401ff5
  4016e2:	83 c4 04             	add    esp,0x4
  4016e5:	85 c0                	test   eax,eax
  4016e7:	74 0b                	je     0x4016f4
  4016e9:	8d 48 23             	lea    ecx,[eax+0x23]
  4016ec:	83 e1 e0             	and    ecx,0xffffffe0
  4016ef:	89 41 fc             	mov    DWORD PTR [ecx-0x4],eax
  4016f2:	eb 19                	jmp    0x40170d
  4016f4:	ff 15 f4 30 40 00    	call   DWORD PTR ds:0x4030f4
  4016fa:	85 c0                	test   eax,eax
  4016fc:	74 0d                	je     0x40170b
  4016fe:	50                   	push   eax
  4016ff:	e8 f1 08 00 00       	call   0x401ff5
  401704:	83 c4 04             	add    esp,0x4
  401707:	8b c8                	mov    ecx,eax
  401709:	eb 02                	jmp    0x40170d
  40170b:	33 c9                	xor    ecx,ecx
  40170d:	8d 43 01             	lea    eax,[ebx+0x1]
  401710:	89 0f                	mov    DWORD PTR [edi],ecx
  401712:	50                   	push   eax
  401713:	ff 74 24 28          	push   DWORD PTR [esp+0x28]
  401717:	51                   	push   ecx
  401718:	e8 64 16 00 00       	call   0x402d81
  40171d:	83 c4 0c             	add    esp,0xc
  401720:	89 5f 10             	mov    DWORD PTR [edi+0x10],ebx
  401723:	89 77 14             	mov    DWORD PTR [edi+0x14],esi
  401726:	e8 05 fb ff ff       	call   0x401230
  40172b:	a3 40 54 40 00       	mov    ds:0x405440,eax
  401730:	83 c4 18             	add    esp,0x18
  401733:	69 c0 b0 e5 00 00    	imul   eax,eax,0xe5b0
  401739:	3b 05 3c 54 40 00    	cmp    eax,DWORD PTR ds:0x40543c
  40173f:	75 21                	jne    0x401762
  401741:	68 40 1c 40 00       	push   0x401c40
  401746:	51                   	push   ecx
  401747:	8b 0d 80 30 40 00    	mov    ecx,DWORD PTR ds:0x403080
  40174d:	ba 3c 32 40 00       	mov    edx,0x40323c
  401752:	e8 a9 02 00 00       	call   0x401a00
  401757:	83 c4 04             	add    esp,0x4
  40175a:	8b c8                	mov    ecx,eax
  40175c:	ff 15 4c 30 40 00    	call   DWORD PTR ds:0x40304c
  401762:	68 48 32 40 00       	push   0x403248
  401767:	ff 15 fc 30 40 00    	call   DWORD PTR ds:0x4030fc
  40176d:	83 c4 04             	add    esp,0x4
  401770:	33 c0                	xor    eax,eax
  401772:	5f                   	pop    edi
  401773:	5e                   	pop    esi
  401774:	5b                   	pop    ebx
  401775:	8b e5                	mov    esp,ebp
  401777:	5d                   	pop    ebp
  401778:	c3                   	ret
  401779:	e8 62 f9 ff ff       	call   0x4010e0
  40177e:	cc                   	int3
  40177f:	cc                   	int3
  401780:	55                   	push   ebp
  401781:	8b ec                	mov    ebp,esp
  401783:	83 ec 08             	sub    esp,0x8
  401786:	a1 08 50 40 00       	mov    eax,ds:0x405008
  40178b:	33 c5                	xor    eax,ebp
  40178d:	89 45 fc             	mov    DWORD PTR [ebp-0x4],eax
  401790:	53                   	push   ebx
  401791:	8b 1d 28 50 40 00    	mov    ebx,DWORD PTR ds:0x405028
  401797:	56                   	push   esi
  401798:	8b 35 2c 50 40 00    	mov    esi,DWORD PTR ds:0x40502c
  40179e:	89 75 f8             	mov    DWORD PTR [ebp-0x8],esi
  4017a1:	3b de                	cmp    ebx,esi
  4017a3:	73 34                	jae    0x4017d9
  4017a5:	83 fe 10             	cmp    esi,0x10
  4017a8:	8d 43 01             	lea    eax,[ebx+0x1]
  4017ab:	b9 18 50 40 00       	mov    ecx,0x405018
  4017b0:	a3 28 50 40 00       	mov    ds:0x405028,eax
  4017b5:	0f 43 0d 18 50 40 00 	cmovae ecx,DWORD PTR ds:0x405018
  4017bc:	8a 45 08             	mov    al,BYTE PTR [ebp+0x8]
  4017bf:	5e                   	pop    esi
  4017c0:	88 04 19             	mov    BYTE PTR [ecx+ebx*1],al
  4017c3:	c6 44 19 01 00       	mov    BYTE PTR [ecx+ebx*1+0x1],0x0
  4017c8:	5b                   	pop    ebx
  4017c9:	8b 4d fc             	mov    ecx,DWORD PTR [ebp-0x4]
  4017cc:	33 cd                	xor    ecx,ebp
  4017ce:	e8 11 08 00 00       	call   0x401fe4
  4017d3:	8b e5                	mov    esp,ebp
  4017d5:	5d                   	pop    ebp
  4017d6:	c2 04 00             	ret    0x4
  4017d9:	b9 ff ff ff 7f       	mov    ecx,0x7fffffff
  4017de:	8b c1                	mov    eax,ecx
  4017e0:	2b c3                	sub    eax,ebx
  4017e2:	83 f8 01             	cmp    eax,0x1
  4017e5:	0f 82 05 01 00 00    	jb     0x4018f0
  4017eb:	57                   	push   edi
  4017ec:	8d 7b 01             	lea    edi,[ebx+0x1]
  4017ef:	83 cf 0f             	or     edi,0xf
  4017f2:	3b f9                	cmp    edi,ecx
  4017f4:	76 04                	jbe    0x4017fa
  4017f6:	8b f9                	mov    edi,ecx
  4017f8:	eb 18                	jmp    0x401812
  4017fa:	8b c6                	mov    eax,esi
  4017fc:	d1 e8                	shr    eax,1
  4017fe:	2b c8                	sub    ecx,eax
  401800:	3b f1                	cmp    esi,ecx
  401802:	76 07                	jbe    0x40180b
  401804:	bf ff ff ff 7f       	mov    edi,0x7fffffff
  401809:	eb 07                	jmp    0x401812
  40180b:	03 c6                	add    eax,esi
  40180d:	3b f8                	cmp    edi,eax
  40180f:	0f 42 f8             	cmovb  edi,eax
  401812:	33 c9                	xor    ecx,ecx
  401814:	8b c7                	mov    eax,edi
  401816:	83 c0 01             	add    eax,0x1
  401819:	0f 92 c1             	setb   cl
  40181c:	f7 d9                	neg    ecx
  40181e:	0b c8                	or     ecx,eax
  401820:	81 f9 00 10 00 00    	cmp    ecx,0x1000
  401826:	72 23                	jb     0x40184b
  401828:	8d 41 23             	lea    eax,[ecx+0x23]
  40182b:	3b c1                	cmp    eax,ecx
  40182d:	0f 86 c2 00 00 00    	jbe    0x4018f5
  401833:	50                   	push   eax
  401834:	e8 bc 07 00 00       	call   0x401ff5
  401839:	83 c4 04             	add    esp,0x4
  40183c:	85 c0                	test   eax,eax
  40183e:	74 78                	je     0x4018b8
  401840:	8d 70 23             	lea    esi,[eax+0x23]
  401843:	83 e6 e0             	and    esi,0xffffffe0
  401846:	89 46 fc             	mov    DWORD PTR [esi-0x4],eax
  401849:	eb 13                	jmp    0x40185e
  40184b:	85 c9                	test   ecx,ecx
  40184d:	74 0d                	je     0x40185c
  40184f:	51                   	push   ecx
  401850:	e8 a0 07 00 00       	call   0x401ff5
  401855:	83 c4 04             	add    esp,0x4
  401858:	8b f0                	mov    esi,eax
  40185a:	eb 02                	jmp    0x40185e
  40185c:	33 f6                	xor    esi,esi
  40185e:	83 7d f8 10          	cmp    DWORD PTR [ebp-0x8],0x10
  401862:	8d 43 01             	lea    eax,[ebx+0x1]
  401865:	a3 28 50 40 00       	mov    ds:0x405028,eax
  40186a:	89 3d 2c 50 40 00    	mov    DWORD PTR ds:0x40502c,edi
  401870:	53                   	push   ebx
  401871:	72 4b                	jb     0x4018be
  401873:	8b 3d 18 50 40 00    	mov    edi,DWORD PTR ds:0x405018
  401879:	57                   	push   edi
  40187a:	56                   	push   esi
  40187b:	e8 01 15 00 00       	call   0x402d81
  401880:	8b 4d f8             	mov    ecx,DWORD PTR [ebp-0x8]
  401883:	83 c4 0c             	add    esp,0xc
  401886:	8a 45 08             	mov    al,BYTE PTR [ebp+0x8]
  401889:	41                   	inc    ecx
  40188a:	88 04 1e             	mov    BYTE PTR [esi+ebx*1],al
  40188d:	c6 44 1e 01 00       	mov    BYTE PTR [esi+ebx*1+0x1],0x0
  401892:	81 f9 00 10 00 00    	cmp    ecx,0x1000
  401898:	72 12                	jb     0x4018ac
  40189a:	8b 57 fc             	mov    edx,DWORD PTR [edi-0x4]
  40189d:	83 c1 23             	add    ecx,0x23
  4018a0:	2b fa                	sub    edi,edx
  4018a2:	8d 47 fc             	lea    eax,[edi-0x4]
  4018a5:	83 f8 1f             	cmp    eax,0x1f
  4018a8:	77 0e                	ja     0x4018b8
  4018aa:	8b fa                	mov    edi,edx
  4018ac:	51                   	push   ecx
  4018ad:	57                   	push   edi
  4018ae:	e8 c3 09 00 00       	call   0x402276
  4018b3:	83 c4 08             	add    esp,0x8
  4018b6:	eb 1f                	jmp    0x4018d7
  4018b8:	ff 15 f4 30 40 00    	call   DWORD PTR ds:0x4030f4
  4018be:	68 18 50 40 00       	push   0x405018
  4018c3:	56                   	push   esi
  4018c4:	e8 b8 14 00 00       	call   0x402d81
  4018c9:	8a 45 08             	mov    al,BYTE PTR [ebp+0x8]
  4018cc:	83 c4 0c             	add    esp,0xc
  4018cf:	88 04 1e             	mov    BYTE PTR [esi+ebx*1],al
  4018d2:	c6 44 1e 01 00       	mov    BYTE PTR [esi+ebx*1+0x1],0x0
  4018d7:	8b 4d fc             	mov    ecx,DWORD PTR [ebp-0x4]
  4018da:	5f                   	pop    edi
  4018db:	89 35 18 50 40 00    	mov    DWORD PTR ds:0x405018,esi
  4018e1:	33 cd                	xor    ecx,ebp
  4018e3:	5e                   	pop    esi
  4018e4:	5b                   	pop    ebx
  4018e5:	e8 fa 06 00 00       	call   0x401fe4
  4018ea:	8b e5                	mov    esp,ebp
  4018ec:	5d                   	pop    ebp
  4018ed:	c2 04 00             	ret    0x4
  4018f0:	e8 8b f8 ff ff       	call   0x401180
  4018f5:	e8 e6 f7 ff ff       	call   0x4010e0
  4018fa:	cc                   	int3
  4018fb:	cc                   	int3
  4018fc:	cc                   	int3
  4018fd:	cc                   	int3
  4018fe:	cc                   	int3
  4018ff:	cc                   	int3
  401900:	55                   	push   ebp
  401901:	8b ec                	mov    ebp,esp
  401903:	6a ff                	push   0xffffffff
  401905:	68 a6 2d 40 00       	push   0x402da6
  40190a:	64 a1 00 00 00 00    	mov    eax,fs:0x0
  401910:	50                   	push   eax
  401911:	83 ec 10             	sub    esp,0x10
  401914:	a1 08 50 40 00       	mov    eax,ds:0x405008
  401919:	33 c5                	xor    eax,ebp
  40191b:	89 45 f0             	mov    DWORD PTR [ebp-0x10],eax
  40191e:	53                   	push   ebx
  40191f:	56                   	push   esi
  401920:	57                   	push   edi
  401921:	50                   	push   eax
  401922:	8d 45 f4             	lea    eax,[ebp-0xc]
  401925:	64 a3 00 00 00 00    	mov    fs:0x0,eax
  40192b:	8b 5d 08             	mov    ebx,DWORD PTR [ebp+0x8]
  40192e:	8d 4d ec             	lea    ecx,[ebp-0x14]
  401931:	6a 00                	push   0x0
  401933:	ff 15 84 30 40 00    	call   DWORD PTR ds:0x403084
  401939:	c7 45 fc 00 00 00 00 	mov    DWORD PTR [ebp-0x4],0x0
  401940:	a1 38 54 40 00       	mov    eax,ds:0x405438
  401945:	8b 0d 6c 30 40 00    	mov    ecx,DWORD PTR ds:0x40306c
  40194b:	89 45 e4             	mov    DWORD PTR [ebp-0x1c],eax
  40194e:	ff 15 5c 30 40 00    	call   DWORD PTR ds:0x40305c
  401954:	8b f8                	mov    edi,eax
  401956:	8b 43 04             	mov    eax,DWORD PTR [ebx+0x4]
  401959:	3b 78 0c             	cmp    edi,DWORD PTR [eax+0xc]
  40195c:	73 0c                	jae    0x40196a
  40195e:	8b 48 08             	mov    ecx,DWORD PTR [eax+0x8]
  401961:	8b 34 b9             	mov    esi,DWORD PTR [ecx+edi*4]
  401964:	85 f6                	test   esi,esi
  401966:	75 5c                	jne    0x4019c4
  401968:	eb 02                	jmp    0x40196c
  40196a:	33 f6                	xor    esi,esi
  40196c:	80 78 14 00          	cmp    BYTE PTR [eax+0x14],0x0
  401970:	74 11                	je     0x401983
  401972:	ff 15 7c 30 40 00    	call   DWORD PTR ds:0x40307c
  401978:	3b 78 0c             	cmp    edi,DWORD PTR [eax+0xc]
  40197b:	73 0a                	jae    0x401987
  40197d:	8b 40 08             	mov    eax,DWORD PTR [eax+0x8]
  401980:	8b 34 b8             	mov    esi,DWORD PTR [eax+edi*4]
  401983:	85 f6                	test   esi,esi
  401985:	75 3d                	jne    0x4019c4
  401987:	8b 75 e4             	mov    esi,DWORD PTR [ebp-0x1c]
  40198a:	85 f6                	test   esi,esi
  40198c:	75 36                	jne    0x4019c4
  40198e:	8d 45 e4             	lea    eax,[ebp-0x1c]
  401991:	53                   	push   ebx
  401992:	50                   	push   eax
  401993:	ff 15 58 30 40 00    	call   DWORD PTR ds:0x403058
  401999:	83 c4 08             	add    esp,0x8
  40199c:	83 f8 ff             	cmp    eax,0xffffffff
  40199f:	74 4a                	je     0x4019eb
  4019a1:	8b 75 e4             	mov    esi,DWORD PTR [ebp-0x1c]
  4019a4:	89 75 e8             	mov    DWORD PTR [ebp-0x18],esi
  4019a7:	56                   	push   esi
  4019a8:	c6 45 fc 01          	mov    BYTE PTR [ebp-0x4],0x1
  4019ac:	e8 07 06 00 00       	call   0x401fb8
  4019b1:	8b 06                	mov    eax,DWORD PTR [esi]
  4019b3:	83 c4 04             	add    esp,0x4
  4019b6:	8b ce                	mov    ecx,esi
  4019b8:	ff 50 04             	call   DWORD PTR [eax+0x4]
  4019bb:	8b 75 e4             	mov    esi,DWORD PTR [ebp-0x1c]
  4019be:	89 35 38 54 40 00    	mov    DWORD PTR ds:0x405438,esi
  4019c4:	8d 4d ec             	lea    ecx,[ebp-0x14]
  4019c7:	ff 15 8c 30 40 00    	call   DWORD PTR ds:0x40308c
  4019cd:	8b c6                	mov    eax,esi
  4019cf:	8b 4d f4             	mov    ecx,DWORD PTR [ebp-0xc]
  4019d2:	64 89 0d 00 00 00 00 	mov    DWORD PTR fs:0x0,ecx
  4019d9:	59                   	pop    ecx
  4019da:	5f                   	pop    edi
  4019db:	5e                   	pop    esi
  4019dc:	5b                   	pop    ebx
  4019dd:	8b 4d f0             	mov    ecx,DWORD PTR [ebp-0x10]
  4019e0:	33 cd                	xor    ecx,ebp
  4019e2:	e8 fd 05 00 00       	call   0x401fe4
  4019e7:	8b e5                	mov    esp,ebp
  4019e9:	5d                   	pop    ebp
  4019ea:	c3                   	ret
  4019eb:	e8 c0 f7 ff ff       	call   0x4011b0
  4019f0:	cc                   	int3
  4019f1:	cc                   	int3
  4019f2:	cc                   	int3
  4019f3:	cc                   	int3
  4019f4:	cc                   	int3
  4019f5:	cc                   	int3
  4019f6:	cc                   	int3
  4019f7:	cc                   	int3
  4019f8:	cc                   	int3
  4019f9:	cc                   	int3
  4019fa:	cc                   	int3
  4019fb:	cc                   	int3
  4019fc:	cc                   	int3
  4019fd:	cc                   	int3
  4019fe:	cc                   	int3
  4019ff:	cc                   	int3
  401a00:	55                   	push   ebp
  401a01:	8b ec                	mov    ebp,esp
  401a03:	6a ff                	push   0xffffffff
  401a05:	68 e5 2d 40 00       	push   0x402de5
  401a0a:	64 a1 00 00 00 00    	mov    eax,fs:0x0
  401a10:	50                   	push   eax
  401a11:	83 ec 24             	sub    esp,0x24
  401a14:	53                   	push   ebx
  401a15:	56                   	push   esi
  401a16:	57                   	push   edi
  401a17:	a1 08 50 40 00       	mov    eax,ds:0x405008
  401a1c:	33 c5                	xor    eax,ebp
  401a1e:	50                   	push   eax
  401a1f:	8d 45 f4             	lea    eax,[ebp-0xc]
  401a22:	64 a3 00 00 00 00    	mov    fs:0x0,eax
  401a28:	89 65 f0             	mov    DWORD PTR [ebp-0x10],esp
  401a2b:	8b c2                	mov    eax,edx
  401a2d:	89 45 e0             	mov    DWORD PTR [ebp-0x20],eax
  401a30:	8b d9                	mov    ebx,ecx
  401a32:	89 5d e8             	mov    DWORD PTR [ebp-0x18],ebx
  401a35:	8b c8                	mov    ecx,eax
  401a37:	c7 45 dc 00 00 00 00 	mov    DWORD PTR [ebp-0x24],0x0
  401a3e:	8d 71 01             	lea    esi,[ecx+0x1]
  401a41:	8a 01                	mov    al,BYTE PTR [ecx]
  401a43:	41                   	inc    ecx
  401a44:	84 c0                	test   al,al
  401a46:	75 f9                	jne    0x401a41
  401a48:	8b 13                	mov    edx,DWORD PTR [ebx]
  401a4a:	2b ce                	sub    ecx,esi
  401a4c:	89 4d ec             	mov    DWORD PTR [ebp-0x14],ecx
  401a4f:	8b 42 04             	mov    eax,DWORD PTR [edx+0x4]
  401a52:	03 c3                	add    eax,ebx
  401a54:	89 45 e4             	mov    DWORD PTR [ebp-0x1c],eax
  401a57:	8b 78 24             	mov    edi,DWORD PTR [eax+0x24]
  401a5a:	8b 70 20             	mov    esi,DWORD PTR [eax+0x20]
  401a5d:	85 ff                	test   edi,edi
  401a5f:	7c 17                	jl     0x401a78
  401a61:	7f 0e                	jg     0x401a71
  401a63:	85 f6                	test   esi,esi
  401a65:	74 11                	je     0x401a78
  401a67:	85 ff                	test   edi,edi
  401a69:	7c 0d                	jl     0x401a78
  401a6b:	7f 04                	jg     0x401a71
  401a6d:	3b f1                	cmp    esi,ecx
  401a6f:	76 07                	jbe    0x401a78
  401a71:	2b f1                	sub    esi,ecx
  401a73:	83 df 00             	sbb    edi,0x0
  401a76:	eb 0e                	jmp    0x401a86
  401a78:	0f 57 c0             	xorps  xmm0,xmm0
  401a7b:	66 0f 13 45 d0       	movlpd QWORD PTR [ebp-0x30],xmm0
  401a80:	8b 7d d4             	mov    edi,DWORD PTR [ebp-0x2c]
  401a83:	8b 75 d0             	mov    esi,DWORD PTR [ebp-0x30]
  401a86:	8b 40 38             	mov    eax,DWORD PTR [eax+0x38]
  401a89:	8b ca                	mov    ecx,edx
  401a8b:	89 5d d0             	mov    DWORD PTR [ebp-0x30],ebx
  401a8e:	85 c0                	test   eax,eax
  401a90:	74 0f                	je     0x401aa1
  401a92:	8b 4d e4             	mov    ecx,DWORD PTR [ebp-0x1c]
  401a95:	8b 00                	mov    eax,DWORD PTR [eax]
  401a97:	8b 49 38             	mov    ecx,DWORD PTR [ecx+0x38]
  401a9a:	ff 50 04             	call   DWORD PTR [eax+0x4]
  401a9d:	8b 13                	mov    edx,DWORD PTR [ebx]
  401a9f:	8b ca                	mov    ecx,edx
  401aa1:	c7 45 fc 00 00 00 00 	mov    DWORD PTR [ebp-0x4],0x0
  401aa8:	8b 42 04             	mov    eax,DWORD PTR [edx+0x4]
  401aab:	03 c3                	add    eax,ebx
  401aad:	83 78 0c 00          	cmp    DWORD PTR [eax+0xc],0x0
  401ab1:	74 04                	je     0x401ab7
  401ab3:	32 c0                	xor    al,al
  401ab5:	eb 26                	jmp    0x401add
  401ab7:	8b 40 3c             	mov    eax,DWORD PTR [eax+0x3c]
  401aba:	85 c0                	test   eax,eax
  401abc:	74 1d                	je     0x401adb
  401abe:	3b c3                	cmp    eax,ebx
  401ac0:	74 19                	je     0x401adb
  401ac2:	8b c8                	mov    ecx,eax
  401ac4:	ff 15 40 30 40 00    	call   DWORD PTR ds:0x403040
  401aca:	8b 13                	mov    edx,DWORD PTR [ebx]
  401acc:	8b ca                	mov    ecx,edx
  401ace:	8b 42 04             	mov    eax,DWORD PTR [edx+0x4]
  401ad1:	83 7c 18 0c 00       	cmp    DWORD PTR [eax+ebx*1+0xc],0x0
  401ad6:	0f 94 c0             	sete   al
  401ad9:	eb 02                	jmp    0x401add
  401adb:	b0 01                	mov    al,0x1
  401add:	88 45 d4             	mov    BYTE PTR [ebp-0x2c],al
  401ae0:	c7 45 fc 01 00 00 00 	mov    DWORD PTR [ebp-0x4],0x1
  401ae7:	84 c0                	test   al,al
  401ae9:	75 0a                	jne    0x401af5
  401aeb:	b9 04 00 00 00       	mov    ecx,0x4
  401af0:	e9 e7 00 00 00       	jmp    0x401bdc
  401af5:	c6 45 fc 02          	mov    BYTE PTR [ebp-0x4],0x2
  401af9:	8b 42 04             	mov    eax,DWORD PTR [edx+0x4]
  401afc:	8b 44 18 14          	mov    eax,DWORD PTR [eax+ebx*1+0x14]
  401b00:	25 c0 01 00 00       	and    eax,0x1c0
  401b05:	83 f8 40             	cmp    eax,0x40
  401b08:	74 3d                	je     0x401b47
  401b0a:	66 0f 1f 44 00 00    	nop    WORD PTR [eax+eax*1+0x0]
  401b10:	85 ff                	test   edi,edi
  401b12:	7c 31                	jl     0x401b45
  401b14:	7f 04                	jg     0x401b1a
  401b16:	85 f6                	test   esi,esi
  401b18:	74 2b                	je     0x401b45
  401b1a:	8b 03                	mov    eax,DWORD PTR [ebx]
  401b1c:	8b 48 04             	mov    ecx,DWORD PTR [eax+0x4]
  401b1f:	8a 44 19 40          	mov    al,BYTE PTR [ecx+ebx*1+0x40]
  401b23:	8b 4c 19 38          	mov    ecx,DWORD PTR [ecx+ebx*1+0x38]
  401b27:	88 45 e4             	mov    BYTE PTR [ebp-0x1c],al
  401b2a:	ff 75 e4             	push   DWORD PTR [ebp-0x1c]
  401b2d:	ff 15 48 30 40 00    	call   DWORD PTR ds:0x403048
  401b33:	83 f8 ff             	cmp    eax,0xffffffff
  401b36:	75 05                	jne    0x401b3d
  401b38:	8d 48 05             	lea    ecx,[eax+0x5]
  401b3b:	eb 61                	jmp    0x401b9e
  401b3d:	83 c6 ff             	add    esi,0xffffffff
  401b40:	83 d7 ff             	adc    edi,0xffffffff
  401b43:	eb cb                	jmp    0x401b10
  401b45:	8b 0b                	mov    ecx,DWORD PTR [ebx]
  401b47:	8b 41 04             	mov    eax,DWORD PTR [ecx+0x4]
  401b4a:	6a 00                	push   0x0
  401b4c:	ff 75 ec             	push   DWORD PTR [ebp-0x14]
  401b4f:	ff 75 e0             	push   DWORD PTR [ebp-0x20]
  401b52:	8b 4c 18 38          	mov    ecx,DWORD PTR [eax+ebx*1+0x38]
  401b56:	ff 15 70 30 40 00    	call   DWORD PTR ds:0x403070
  401b5c:	3b 45 ec             	cmp    eax,DWORD PTR [ebp-0x14]
  401b5f:	75 2c                	jne    0x401b8d
  401b61:	85 d2                	test   edx,edx
  401b63:	75 28                	jne    0x401b8d
  401b65:	85 ff                	test   edi,edi
  401b67:	7c 33                	jl     0x401b9c
  401b69:	7f 04                	jg     0x401b6f
  401b6b:	85 f6                	test   esi,esi
  401b6d:	74 2d                	je     0x401b9c
  401b6f:	8b 03                	mov    eax,DWORD PTR [ebx]
  401b71:	8b 48 04             	mov    ecx,DWORD PTR [eax+0x4]
  401b74:	8a 44 19 40          	mov    al,BYTE PTR [ecx+ebx*1+0x40]
  401b78:	8b 4c 19 38          	mov    ecx,DWORD PTR [ecx+ebx*1+0x38]
  401b7c:	88 45 e0             	mov    BYTE PTR [ebp-0x20],al
  401b7f:	ff 75 e0             	push   DWORD PTR [ebp-0x20]
  401b82:	ff 15 48 30 40 00    	call   DWORD PTR ds:0x403048
  401b88:	83 f8 ff             	cmp    eax,0xffffffff
  401b8b:	75 07                	jne    0x401b94
  401b8d:	b9 04 00 00 00       	mov    ecx,0x4
  401b92:	eb 0a                	jmp    0x401b9e
  401b94:	83 c6 ff             	add    esi,0xffffffff
  401b97:	83 d7 ff             	adc    edi,0xffffffff
  401b9a:	eb c9                	jmp    0x401b65
  401b9c:	33 c9                	xor    ecx,ecx
  401b9e:	8b 03                	mov    eax,DWORD PTR [ebx]
  401ba0:	8b 40 04             	mov    eax,DWORD PTR [eax+0x4]
  401ba3:	c7 44 18 20 00 00 00 	mov    DWORD PTR [eax+ebx*1+0x20],0x0
  401baa:	00 
  401bab:	c7 44 18 24 00 00 00 	mov    DWORD PTR [eax+ebx*1+0x24],0x0
  401bb2:	00 
  401bb3:	eb 20                	jmp    0x401bd5
  401bb5:	8b 55 e8             	mov    edx,DWORD PTR [ebp-0x18]
  401bb8:	6a 01                	push   0x1
  401bba:	6a 04                	push   0x4
  401bbc:	8b 02                	mov    eax,DWORD PTR [edx]
  401bbe:	8b 48 04             	mov    ecx,DWORD PTR [eax+0x4]
  401bc1:	03 ca                	add    ecx,edx
  401bc3:	ff 15 34 30 40 00    	call   DWORD PTR ds:0x403034
  401bc9:	b8 cf 1b 40 00       	mov    eax,0x401bcf
  401bce:	c3                   	ret
  401bcf:	8b 5d e8             	mov    ebx,DWORD PTR [ebp-0x18]
  401bd2:	8b 4d dc             	mov    ecx,DWORD PTR [ebp-0x24]
  401bd5:	c7 45 fc 01 00 00 00 	mov    DWORD PTR [ebp-0x4],0x1
  401bdc:	8b 03                	mov    eax,DWORD PTR [ebx]
  401bde:	6a 00                	push   0x0
  401be0:	51                   	push   ecx
  401be1:	8b 48 04             	mov    ecx,DWORD PTR [eax+0x4]
  401be4:	03 cb                	add    ecx,ebx
  401be6:	ff 15 34 30 40 00    	call   DWORD PTR ds:0x403034
  401bec:	c7 45 fc 04 00 00 00 	mov    DWORD PTR [ebp-0x4],0x4
  401bf3:	ff 15 78 30 40 00    	call   DWORD PTR ds:0x403078
  401bf9:	8b 75 d0             	mov    esi,DWORD PTR [ebp-0x30]
  401bfc:	84 c0                	test   al,al
  401bfe:	75 08                	jne    0x401c08
  401c00:	8b ce                	mov    ecx,esi
  401c02:	ff 15 60 30 40 00    	call   DWORD PTR ds:0x403060
  401c08:	c6 45 fc 05          	mov    BYTE PTR [ebp-0x4],0x5
  401c0c:	8b 06                	mov    eax,DWORD PTR [esi]
  401c0e:	8b 40 04             	mov    eax,DWORD PTR [eax+0x4]
  401c11:	8b 4c 30 38          	mov    ecx,DWORD PTR [eax+esi*1+0x38]
  401c15:	85 c9                	test   ecx,ecx
  401c17:	74 05                	je     0x401c1e
  401c19:	8b 01                	mov    eax,DWORD PTR [ecx]
  401c1b:	ff 50 08             	call   DWORD PTR [eax+0x8]
  401c1e:	8b c3                	mov    eax,ebx
  401c20:	8b 4d f4             	mov    ecx,DWORD PTR [ebp-0xc]
  401c23:	64 89 0d 00 00 00 00 	mov    DWORD PTR fs:0x0,ecx
  401c2a:	59                   	pop    ecx
  401c2b:	5f                   	pop    edi
  401c2c:	5e                   	pop    esi
  401c2d:	5b                   	pop    ebx
  401c2e:	8b e5                	mov    esp,ebp
  401c30:	5d                   	pop    ebp
  401c31:	c3                   	ret
  401c32:	cc                   	int3
  401c33:	cc                   	int3
  401c34:	cc                   	int3
  401c35:	cc                   	int3
  401c36:	cc                   	int3
  401c37:	cc                   	int3
  401c38:	cc                   	int3
  401c39:	cc                   	int3
  401c3a:	cc                   	int3
  401c3b:	cc                   	int3
  401c3c:	cc                   	int3
  401c3d:	cc                   	int3
  401c3e:	cc                   	int3
  401c3f:	cc                   	int3
  401c40:	55                   	push   ebp
  401c41:	8b ec                	mov    ebp,esp
  401c43:	56                   	push   esi
  401c44:	8b 75 08             	mov    esi,DWORD PTR [ebp+0x8]
  401c47:	6a 0a                	push   0xa
  401c49:	8b 06                	mov    eax,DWORD PTR [esi]
  401c4b:	8b 48 04             	mov    ecx,DWORD PTR [eax+0x4]
  401c4e:	03 ce                	add    ecx,esi
  401c50:	ff 15 38 30 40 00    	call   DWORD PTR ds:0x403038
  401c56:	0f b6 c8             	movzx  ecx,al
  401c59:	51                   	push   ecx
  401c5a:	8b ce                	mov    ecx,esi
  401c5c:	ff 15 3c 30 40 00    	call   DWORD PTR ds:0x40303c
  401c62:	8b ce                	mov    ecx,esi
  401c64:	ff 15 40 30 40 00    	call   DWORD PTR ds:0x403040
  401c6a:	8b c6                	mov    eax,esi
  401c6c:	5e                   	pop    esi
  401c6d:	5d                   	pop    ebp
  401c6e:	c3                   	ret
  401c6f:	cc                   	int3
  401c70:	55                   	push   ebp
  401c71:	8b ec                	mov    ebp,esp
  401c73:	6a ff                	push   0xffffffff
  401c75:	68 10 2e 40 00       	push   0x402e10
  401c7a:	64 a1 00 00 00 00    	mov    eax,fs:0x0
  401c80:	50                   	push   eax
  401c81:	a1 08 50 40 00       	mov    eax,ds:0x405008
  401c86:	33 c5                	xor    eax,ebp
  401c88:	50                   	push   eax
  401c89:	8d 45 f4             	lea    eax,[ebp-0xc]
  401c8c:	64 a3 00 00 00 00    	mov    fs:0x0,eax
  401c92:	c7 45 fc 00 00 00 00 	mov    DWORD PTR [ebp-0x4],0x0
  401c99:	8b 09                	mov    ecx,DWORD PTR [ecx]
  401c9b:	8b 01                	mov    eax,DWORD PTR [ecx]
  401c9d:	8b 40 04             	mov    eax,DWORD PTR [eax+0x4]
  401ca0:	8b 4c 08 38          	mov    ecx,DWORD PTR [eax+ecx*1+0x38]
  401ca4:	85 c9                	test   ecx,ecx
  401ca6:	74 05                	je     0x401cad
  401ca8:	8b 01                	mov    eax,DWORD PTR [ecx]
  401caa:	ff 50 08             	call   DWORD PTR [eax+0x8]
  401cad:	8b 4d f4             	mov    ecx,DWORD PTR [ebp-0xc]
  401cb0:	64 89 0d 00 00 00 00 	mov    DWORD PTR fs:0x0,ecx
  401cb7:	59                   	pop    ecx
  401cb8:	8b e5                	mov    esp,ebp
  401cba:	5d                   	pop    ebp
  401cbb:	c3                   	ret
  401cbc:	cc                   	int3
  401cbd:	cc                   	int3
  401cbe:	cc                   	int3
  401cbf:	cc                   	int3
  401cc0:	cc                   	int3
  401cc1:	cc                   	int3
  401cc2:	cc                   	int3
  401cc3:	cc                   	int3
  401cc4:	cc                   	int3
  401cc5:	cc                   	int3
  401cc6:	cc                   	int3
  401cc7:	cc                   	int3
  401cc8:	cc                   	int3
  401cc9:	cc                   	int3
  401cca:	cc                   	int3
  401ccb:	cc                   	int3
  401ccc:	cc                   	int3
  401ccd:	cc                   	int3
  401cce:	cc                   	int3
  401ccf:	cc                   	int3
  401cd0:	55                   	push   ebp
  401cd1:	8b ec                	mov    ebp,esp
  401cd3:	6a ff                	push   0xffffffff
  401cd5:	68 30 2e 40 00       	push   0x402e30
  401cda:	64 a1 00 00 00 00    	mov    eax,fs:0x0
  401ce0:	50                   	push   eax
  401ce1:	a1 08 50 40 00       	mov    eax,ds:0x405008
  401ce6:	33 c5                	xor    eax,ebp
  401ce8:	50                   	push   eax
  401ce9:	8d 45 f4             	lea    eax,[ebp-0xc]
  401cec:	64 a3 00 00 00 00    	mov    fs:0x0,eax
  401cf2:	8b 09                	mov    ecx,DWORD PTR [ecx]
  401cf4:	8b 01                	mov    eax,DWORD PTR [ecx]
  401cf6:	8b 40 04             	mov    eax,DWORD PTR [eax+0x4]
  401cf9:	8b 4c 08 38          	mov    ecx,DWORD PTR [eax+ecx*1+0x38]
  401cfd:	85 c9                	test   ecx,ecx
  401cff:	74 05                	je     0x401d06
  401d01:	8b 01                	mov    eax,DWORD PTR [ecx]
  401d03:	ff 50 08             	call   DWORD PTR [eax+0x8]
  401d06:	8b 4d f4             	mov    ecx,DWORD PTR [ebp-0xc]
  401d09:	64 89 0d 00 00 00 00 	mov    DWORD PTR fs:0x0,ecx
  401d10:	59                   	pop    ecx
  401d11:	8b e5                	mov    esp,ebp
  401d13:	5d                   	pop    ebp
  401d14:	c3                   	ret
  401d15:	cc                   	int3
  401d16:	cc                   	int3
  401d17:	cc                   	int3
  401d18:	cc                   	int3
  401d19:	cc                   	int3
  401d1a:	cc                   	int3
  401d1b:	cc                   	int3
  401d1c:	cc                   	int3
  401d1d:	cc                   	int3
  401d1e:	cc                   	int3
  401d1f:	cc                   	int3
  401d20:	55                   	push   ebp
  401d21:	8b ec                	mov    ebp,esp
  401d23:	6a ff                	push   0xffffffff
  401d25:	68 50 2e 40 00       	push   0x402e50
  401d2a:	64 a1 00 00 00 00    	mov    eax,fs:0x0
  401d30:	50                   	push   eax
  401d31:	56                   	push   esi
  401d32:	a1 08 50 40 00       	mov    eax,ds:0x405008
  401d37:	33 c5                	xor    eax,ebp
  401d39:	50                   	push   eax
  401d3a:	8d 45 f4             	lea    eax,[ebp-0xc]
  401d3d:	64 a3 00 00 00 00    	mov    fs:0x0,eax
  401d43:	8b f1                	mov    esi,ecx
  401d45:	ff 15 78 30 40 00    	call   DWORD PTR ds:0x403078
  401d4b:	84 c0                	test   al,al
  401d4d:	75 08                	jne    0x401d57
  401d4f:	8b 0e                	mov    ecx,DWORD PTR [esi]
  401d51:	ff 15 60 30 40 00    	call   DWORD PTR ds:0x403060
  401d57:	c7 45 fc 00 00 00 00 	mov    DWORD PTR [ebp-0x4],0x0
  401d5e:	8b 0e                	mov    ecx,DWORD PTR [esi]
  401d60:	8b 01                	mov    eax,DWORD PTR [ecx]
  401d62:	8b 40 04             	mov    eax,DWORD PTR [eax+0x4]
  401d65:	8b 4c 08 38          	mov    ecx,DWORD PTR [eax+ecx*1+0x38]
  401d69:	85 c9                	test   ecx,ecx
  401d6b:	74 05                	je     0x401d72
  401d6d:	8b 01                	mov    eax,DWORD PTR [ecx]
  401d6f:	ff 50 08             	call   DWORD PTR [eax+0x8]
  401d72:	8b 4d f4             	mov    ecx,DWORD PTR [ebp-0xc]
  401d75:	64 89 0d 00 00 00 00 	mov    DWORD PTR fs:0x0,ecx
  401d7c:	59                   	pop    ecx
  401d7d:	5e                   	pop    esi
  401d7e:	8b e5                	mov    esp,ebp
  401d80:	5d                   	pop    ebp
  401d81:	c3                   	ret
  401d82:	cc                   	int3
  401d83:	cc                   	int3
  401d84:	cc                   	int3
  401d85:	cc                   	int3
  401d86:	cc                   	int3
  401d87:	cc                   	int3
  401d88:	cc                   	int3
  401d89:	cc                   	int3
  401d8a:	cc                   	int3
  401d8b:	cc                   	int3
  401d8c:	cc                   	int3
  401d8d:	cc                   	int3
  401d8e:	cc                   	int3
  401d8f:	cc                   	int3
  401d90:	8b 09                	mov    ecx,DWORD PTR [ecx]
  401d92:	85 c9                	test   ecx,ecx
  401d94:	74 06                	je     0x401d9c
  401d96:	8b 01                	mov    eax,DWORD PTR [ecx]
  401d98:	6a 01                	push   0x1
  401d9a:	ff 10                	call   DWORD PTR [eax]
  401d9c:	c3                   	ret
  401d9d:	cc                   	int3
  401d9e:	cc                   	int3
  401d9f:	cc                   	int3
  401da0:	55                   	push   ebp
  401da1:	8b ec                	mov    ebp,esp
  401da3:	6a ff                	push   0xffffffff
  401da5:	68 8d 2e 40 00       	push   0x402e8d
  401daa:	64 a1 00 00 00 00    	mov    eax,fs:0x0
  401db0:	50                   	push   eax
  401db1:	83 ec 24             	sub    esp,0x24
  401db4:	53                   	push   ebx
  401db5:	56                   	push   esi
  401db6:	57                   	push   edi
  401db7:	a1 08 50 40 00       	mov    eax,ds:0x405008
  401dbc:	33 c5                	xor    eax,ebp
  401dbe:	50                   	push   eax
  401dbf:	8d 45 f4             	lea    eax,[ebp-0xc]
  401dc2:	64 a3 00 00 00 00    	mov    fs:0x0,eax
  401dc8:	89 65 f0             	mov    DWORD PTR [ebp-0x10],esp
  401dcb:	8b f1                	mov    esi,ecx
  401dcd:	89 75 e8             	mov    DWORD PTR [ebp-0x18],esi
  401dd0:	8b 06                	mov    eax,DWORD PTR [esi]
  401dd2:	33 db                	xor    ebx,ebx
  401dd4:	8b fe                	mov    edi,esi
  401dd6:	89 5d e0             	mov    DWORD PTR [ebp-0x20],ebx
  401dd9:	88 5d ef             	mov    BYTE PTR [ebp-0x11],bl
  401ddc:	89 7d d8             	mov    DWORD PTR [ebp-0x28],edi
  401ddf:	8b 40 04             	mov    eax,DWORD PTR [eax+0x4]
  401de2:	8b 4c 30 38          	mov    ecx,DWORD PTR [eax+esi*1+0x38]
  401de6:	85 c9                	test   ecx,ecx
  401de8:	74 05                	je     0x401def
  401dea:	8b 01                	mov    eax,DWORD PTR [ecx]
  401dec:	ff 50 04             	call   DWORD PTR [eax+0x4]
  401def:	6a 00                	push   0x0
  401df1:	8b ce                	mov    ecx,esi
  401df3:	c7 45 fc 00 00 00 00 	mov    DWORD PTR [ebp-0x4],0x0
  401dfa:	ff 15 50 30 40 00    	call   DWORD PTR ds:0x403050
  401e00:	88 45 dc             	mov    BYTE PTR [ebp-0x24],al
  401e03:	c7 45 fc 01 00 00 00 	mov    DWORD PTR [ebp-0x4],0x1
  401e0a:	84 c0                	test   al,al
  401e0c:	0f 84 f3 00 00 00    	je     0x401f05
  401e12:	8d 45 d0             	lea    eax,[ebp-0x30]
  401e15:	50                   	push   eax
  401e16:	8b 06                	mov    eax,DWORD PTR [esi]
  401e18:	8b 48 04             	mov    ecx,DWORD PTR [eax+0x4]
  401e1b:	03 ce                	add    ecx,esi
  401e1d:	ff 15 54 30 40 00    	call   DWORD PTR ds:0x403054
  401e23:	50                   	push   eax
  401e24:	c6 45 fc 02          	mov    BYTE PTR [ebp-0x4],0x2
  401e28:	e8 d3 fa ff ff       	call   0x401900
  401e2d:	8b 4d d4             	mov    ecx,DWORD PTR [ebp-0x2c]
  401e30:	83 c4 04             	add    esp,0x4
  401e33:	89 45 e4             	mov    DWORD PTR [ebp-0x1c],eax
  401e36:	85 c9                	test   ecx,ecx
  401e38:	74 11                	je     0x401e4b
  401e3a:	8b 11                	mov    edx,DWORD PTR [ecx]
  401e3c:	ff 52 08             	call   DWORD PTR [edx+0x8]
  401e3f:	85 c0                	test   eax,eax
  401e41:	74 08                	je     0x401e4b
  401e43:	8b 10                	mov    edx,DWORD PTR [eax]
  401e45:	8b c8                	mov    ecx,eax
  401e47:	6a 01                	push   0x1
  401e49:	ff 12                	call   DWORD PTR [edx]
  401e4b:	83 3d 2c 50 40 00 10 	cmp    DWORD PTR ds:0x40502c,0x10
  401e52:	b8 18 50 40 00       	mov    eax,0x405018
  401e57:	c7 05 28 50 40 00 00 	mov    DWORD PTR ds:0x405028,0x0
  401e5e:	00 00 00 
  401e61:	0f 43 05 18 50 40 00 	cmovae eax,DWORD PTR ds:0x405018
  401e68:	c6 45 fc 03          	mov    BYTE PTR [ebp-0x4],0x3
  401e6c:	c6 00 00             	mov    BYTE PTR [eax],0x0
  401e6f:	8b 06                	mov    eax,DWORD PTR [esi]
  401e71:	8b 40 04             	mov    eax,DWORD PTR [eax+0x4]
  401e74:	83 7c 30 24 00       	cmp    DWORD PTR [eax+esi*1+0x24],0x0
  401e79:	8b 7c 30 20          	mov    edi,DWORD PTR [eax+esi*1+0x20]
  401e7d:	7c 0e                	jl     0x401e8d
  401e7f:	7f 04                	jg     0x401e85
  401e81:	85 ff                	test   edi,edi
  401e83:	74 08                	je     0x401e8d
  401e85:	81 ff ff ff ff 7f    	cmp    edi,0x7fffffff
  401e8b:	72 05                	jb     0x401e92
  401e8d:	bf ff ff ff 7f       	mov    edi,0x7fffffff
  401e92:	8b 4c 30 38          	mov    ecx,DWORD PTR [eax+esi*1+0x38]
  401e96:	ff 15 44 30 40 00    	call   DWORD PTR ds:0x403044
  401e9c:	0f 1f 40 00          	nop    DWORD PTR [eax+0x0]
  401ea0:	85 ff                	test   edi,edi
  401ea2:	74 57                	je     0x401efb
  401ea4:	83 f8 ff             	cmp    eax,0xffffffff
  401ea7:	75 05                	jne    0x401eae
  401ea9:	8d 58 02             	lea    ebx,[eax+0x2]
  401eac:	eb 4d                	jmp    0x401efb
  401eae:	8a d0                	mov    dl,al
  401eb0:	8b 45 e4             	mov    eax,DWORD PTR [ebp-0x1c]
  401eb3:	0f b6 ca             	movzx  ecx,dl
  401eb6:	8b 40 0c             	mov    eax,DWORD PTR [eax+0xc]
  401eb9:	f6 04 48 48          	test   BYTE PTR [eax+ecx*2],0x48
  401ebd:	75 3c                	jne    0x401efb
  401ebf:	52                   	push   edx
  401ec0:	e8 bb f8 ff ff       	call   0x401780
  401ec5:	8b 06                	mov    eax,DWORD PTR [esi]
  401ec7:	4f                   	dec    edi
  401ec8:	c6 45 ef 01          	mov    BYTE PTR [ebp-0x11],0x1
  401ecc:	8b 40 04             	mov    eax,DWORD PTR [eax+0x4]
  401ecf:	8b 4c 30 38          	mov    ecx,DWORD PTR [eax+esi*1+0x38]
  401ed3:	ff 15 64 30 40 00    	call   DWORD PTR ds:0x403064
  401ed9:	eb c5                	jmp    0x401ea0
  401edb:	8b 55 e8             	mov    edx,DWORD PTR [ebp-0x18]
  401ede:	6a 01                	push   0x1
  401ee0:	6a 04                	push   0x4
  401ee2:	8b 02                	mov    eax,DWORD PTR [edx]
  401ee4:	8b 48 04             	mov    ecx,DWORD PTR [eax+0x4]
  401ee7:	03 ca                	add    ecx,edx
  401ee9:	ff 15 34 30 40 00    	call   DWORD PTR ds:0x403034
  401eef:	b8 f5 1e 40 00       	mov    eax,0x401ef5
  401ef4:	c3                   	ret
  401ef5:	8b 75 e8             	mov    esi,DWORD PTR [ebp-0x18]
  401ef8:	8b 5d e0             	mov    ebx,DWORD PTR [ebp-0x20]
  401efb:	c7 45 fc 01 00 00 00 	mov    DWORD PTR [ebp-0x4],0x1
  401f02:	8b 7d d8             	mov    edi,DWORD PTR [ebp-0x28]
  401f05:	80 7d ef 00          	cmp    BYTE PTR [ebp-0x11],0x0
  401f09:	8b 06                	mov    eax,DWORD PTR [esi]
  401f0b:	8b 40 04             	mov    eax,DWORD PTR [eax+0x4]
  401f0e:	c7 44 30 20 00 00 00 	mov    DWORD PTR [eax+esi*1+0x20],0x0
  401f15:	00 
  401f16:	c7 44 30 24 00 00 00 	mov    DWORD PTR [eax+esi*1+0x24],0x0
  401f1d:	00 
  401f1e:	75 03                	jne    0x401f23
  401f20:	83 cb 02             	or     ebx,0x2
  401f23:	8b 06                	mov    eax,DWORD PTR [esi]
  401f25:	6a 00                	push   0x0
  401f27:	53                   	push   ebx
  401f28:	8b 48 04             	mov    ecx,DWORD PTR [eax+0x4]
  401f2b:	03 ce                	add    ecx,esi
  401f2d:	ff 15 34 30 40 00    	call   DWORD PTR ds:0x403034
  401f33:	c7 45 fc 05 00 00 00 	mov    DWORD PTR [ebp-0x4],0x5
  401f3a:	8b 07                	mov    eax,DWORD PTR [edi]
  401f3c:	8b 40 04             	mov    eax,DWORD PTR [eax+0x4]
  401f3f:	8b 4c 38 38          	mov    ecx,DWORD PTR [eax+edi*1+0x38]
  401f43:	85 c9                	test   ecx,ecx
  401f45:	74 05                	je     0x401f4c
  401f47:	8b 01                	mov    eax,DWORD PTR [ecx]
  401f49:	ff 50 08             	call   DWORD PTR [eax+0x8]
  401f4c:	8b c6                	mov    eax,esi
  401f4e:	8b 4d f4             	mov    ecx,DWORD PTR [ebp-0xc]
  401f51:	64 89 0d 00 00 00 00 	mov    DWORD PTR fs:0x0,ecx
  401f58:	59                   	pop    ecx
  401f59:	5f                   	pop    edi
  401f5a:	5e                   	pop    esi
  401f5b:	5b                   	pop    ebx
  401f5c:	8b e5                	mov    esp,ebp
  401f5e:	5d                   	pop    ebp
  401f5f:	c3                   	ret
  401f60:	56                   	push   esi
  401f61:	57                   	push   edi
  401f62:	8b 79 04             	mov    edi,DWORD PTR [ecx+0x4]
  401f65:	8b 07                	mov    eax,DWORD PTR [edi]
  401f67:	8b 70 08             	mov    esi,DWORD PTR [eax+0x8]
  401f6a:	8b ce                	mov    ecx,esi
  401f6c:	ff 15 4c 31 40 00    	call   DWORD PTR ds:0x40314c
  401f72:	8b cf                	mov    ecx,edi
  401f74:	ff d6                	call   esi
  401f76:	8b f8                	mov    edi,eax
  401f78:	85 ff                	test   edi,edi
  401f7a:	74 12                	je     0x401f8e
  401f7c:	8b 0f                	mov    ecx,DWORD PTR [edi]
  401f7e:	6a 01                	push   0x1
  401f80:	8b 31                	mov    esi,DWORD PTR [ecx]
  401f82:	8b ce                	mov    ecx,esi
  401f84:	ff 15 4c 31 40 00    	call   DWORD PTR ds:0x40314c
  401f8a:	8b cf                	mov    ecx,edi
  401f8c:	ff d6                	call   esi
  401f8e:	5f                   	pop    edi
  401f8f:	5e                   	pop    esi
  401f90:	c3                   	ret
  401f91:	56                   	push   esi
  401f92:	eb 18                	jmp    0x401fac
  401f94:	8b 06                	mov    eax,DWORD PTR [esi]
  401f96:	8b ce                	mov    ecx,esi
  401f98:	a3 c8 50 40 00       	mov    ds:0x4050c8,eax
  401f9d:	e8 be ff ff ff       	call   0x401f60
  401fa2:	6a 08                	push   0x8
  401fa4:	56                   	push   esi
  401fa5:	e8 cc 02 00 00       	call   0x402276
  401faa:	59                   	pop    ecx
  401fab:	59                   	pop    ecx
  401fac:	8b 35 c8 50 40 00    	mov    esi,DWORD PTR ds:0x4050c8
  401fb2:	85 f6                	test   esi,esi
  401fb4:	75 de                	jne    0x401f94
  401fb6:	5e                   	pop    esi
  401fb7:	c3                   	ret
  401fb8:	55                   	push   ebp
  401fb9:	8b ec                	mov    ebp,esp
  401fbb:	51                   	push   ecx
  401fbc:	6a 08                	push   0x8
  401fbe:	e8 32 00 00 00       	call   0x401ff5
  401fc3:	89 45 fc             	mov    DWORD PTR [ebp-0x4],eax
  401fc6:	59                   	pop    ecx
  401fc7:	85 c0                	test   eax,eax
  401fc9:	74 10                	je     0x401fdb
  401fcb:	8b 0d c8 50 40 00    	mov    ecx,DWORD PTR ds:0x4050c8
  401fd1:	89 08                	mov    DWORD PTR [eax],ecx
  401fd3:	8b 4d 08             	mov    ecx,DWORD PTR [ebp+0x8]
  401fd6:	89 48 04             	mov    DWORD PTR [eax+0x4],ecx
  401fd9:	eb 02                	jmp    0x401fdd
  401fdb:	33 c0                	xor    eax,eax
  401fdd:	a3 c8 50 40 00       	mov    ds:0x4050c8,eax
  401fe2:	c9                   	leave
  401fe3:	c3                   	ret
  401fe4:	3b 0d 08 50 40 00    	cmp    ecx,DWORD PTR ds:0x405008
  401fea:	f2 75 02             	bnd jne 0x401fef
  401fed:	f2 c3                	bnd ret
  401fef:	f2 e9 2e 05 00 00    	bnd jmp 0x402523
  401ff5:	55                   	push   ebp
  401ff6:	8b ec                	mov    ebp,esp
  401ff8:	eb 0d                	jmp    0x402007
  401ffa:	ff 75 08             	push   DWORD PTR [ebp+0x8]
  401ffd:	e8 19 0c 00 00       	call   0x402c1b
  402002:	59                   	pop    ecx
  402003:	85 c0                	test   eax,eax
  402005:	74 0f                	je     0x402016
  402007:	ff 75 08             	push   DWORD PTR [ebp+0x8]
  40200a:	e8 12 0c 00 00       	call   0x402c21
  40200f:	59                   	pop    ecx
  402010:	85 c0                	test   eax,eax
  402012:	74 e6                	je     0x401ffa
  402014:	5d                   	pop    ebp
  402015:	c3                   	ret
  402016:	83 7d 08 ff          	cmp    DWORD PTR [ebp+0x8],0xffffffff
  40201a:	0f 84 c0 f0 ff ff    	je     0x4010e0
  402020:	e9 10 06 00 00       	jmp    0x402635
  402025:	55                   	push   ebp
  402026:	8b ec                	mov    ebp,esp
  402028:	8b 45 08             	mov    eax,DWORD PTR [ebp+0x8]
  40202b:	56                   	push   esi
  40202c:	8b 48 3c             	mov    ecx,DWORD PTR [eax+0x3c]
  40202f:	03 c8                	add    ecx,eax
  402031:	0f b7 41 14          	movzx  eax,WORD PTR [ecx+0x14]
  402035:	8d 51 18             	lea    edx,[ecx+0x18]
  402038:	03 d0                	add    edx,eax
  40203a:	0f b7 41 06          	movzx  eax,WORD PTR [ecx+0x6]
  40203e:	6b f0 28             	imul   esi,eax,0x28
  402041:	03 f2                	add    esi,edx
  402043:	3b d6                	cmp    edx,esi
  402045:	74 19                	je     0x402060
  402047:	8b 4d 0c             	mov    ecx,DWORD PTR [ebp+0xc]
  40204a:	3b 4a 0c             	cmp    ecx,DWORD PTR [edx+0xc]
  40204d:	72 0a                	jb     0x402059
  40204f:	8b 42 08             	mov    eax,DWORD PTR [edx+0x8]
  402052:	03 42 0c             	add    eax,DWORD PTR [edx+0xc]
  402055:	3b c8                	cmp    ecx,eax
  402057:	72 0c                	jb     0x402065
  402059:	83 c2 28             	add    edx,0x28
  40205c:	3b d6                	cmp    edx,esi
  40205e:	75 ea                	jne    0x40204a
  402060:	33 c0                	xor    eax,eax
  402062:	5e                   	pop    esi
  402063:	5d                   	pop    ebp
  402064:	c3                   	ret
  402065:	8b c2                	mov    eax,edx
  402067:	eb f9                	jmp    0x402062
  402069:	56                   	push   esi
  40206a:	e8 b8 07 00 00       	call   0x402827
  40206f:	85 c0                	test   eax,eax
  402071:	74 20                	je     0x402093
  402073:	64 a1 18 00 00 00    	mov    eax,fs:0x18
  402079:	be d4 50 40 00       	mov    esi,0x4050d4
  40207e:	8b 50 04             	mov    edx,DWORD PTR [eax+0x4]
  402081:	eb 04                	jmp    0x402087
  402083:	3b d0                	cmp    edx,eax
  402085:	74 10                	je     0x402097
  402087:	33 c0                	xor    eax,eax
  402089:	8b ca                	mov    ecx,edx
  40208b:	f0 0f b1 0e          	lock cmpxchg DWORD PTR [esi],ecx
  40208f:	85 c0                	test   eax,eax
  402091:	75 f0                	jne    0x402083
  402093:	32 c0                	xor    al,al
  402095:	5e                   	pop    esi
  402096:	c3                   	ret
  402097:	b0 01                	mov    al,0x1
  402099:	5e                   	pop    esi
  40209a:	c3                   	ret
  40209b:	55                   	push   ebp
  40209c:	8b ec                	mov    ebp,esp
  40209e:	83 7d 08 00          	cmp    DWORD PTR [ebp+0x8],0x0
  4020a2:	75 07                	jne    0x4020ab
  4020a4:	c6 05 d8 50 40 00 01 	mov    BYTE PTR ds:0x4050d8,0x1
  4020ab:	e8 a2 05 00 00       	call   0x402652
  4020b0:	e8 7f 0a 00 00       	call   0x402b34
  4020b5:	84 c0                	test   al,al
  4020b7:	75 04                	jne    0x4020bd
  4020b9:	32 c0                	xor    al,al
  4020bb:	5d                   	pop    ebp
  4020bc:	c3                   	ret
  4020bd:	e8 72 0a 00 00       	call   0x402b34
  4020c2:	84 c0                	test   al,al
  4020c4:	75 0a                	jne    0x4020d0
  4020c6:	6a 00                	push   0x0
  4020c8:	e8 67 0a 00 00       	call   0x402b34
  4020cd:	59                   	pop    ecx
  4020ce:	eb e9                	jmp    0x4020b9
  4020d0:	b0 01                	mov    al,0x1
  4020d2:	5d                   	pop    ebp
  4020d3:	c3                   	ret
  4020d4:	55                   	push   ebp
  4020d5:	8b ec                	mov    ebp,esp
  4020d7:	80 3d d9 50 40 00 00 	cmp    BYTE PTR ds:0x4050d9,0x0
  4020de:	74 04                	je     0x4020e4
  4020e0:	b0 01                	mov    al,0x1
  4020e2:	5d                   	pop    ebp
  4020e3:	c3                   	ret
  4020e4:	56                   	push   esi
  4020e5:	8b 75 08             	mov    esi,DWORD PTR [ebp+0x8]
  4020e8:	85 f6                	test   esi,esi
  4020ea:	74 05                	je     0x4020f1
  4020ec:	83 fe 01             	cmp    esi,0x1
  4020ef:	75 62                	jne    0x402153
  4020f1:	e8 31 07 00 00       	call   0x402827
  4020f6:	85 c0                	test   eax,eax
  4020f8:	74 26                	je     0x402120
  4020fa:	85 f6                	test   esi,esi
  4020fc:	75 22                	jne    0x402120
  4020fe:	68 dc 50 40 00       	push   0x4050dc
  402103:	e8 2b 0b 00 00       	call   0x402c33
  402108:	59                   	pop    ecx
  402109:	85 c0                	test   eax,eax
  40210b:	75 0f                	jne    0x40211c
  40210d:	68 e8 50 40 00       	push   0x4050e8
  402112:	e8 1c 0b 00 00       	call   0x402c33
  402117:	59                   	pop    ecx
  402118:	85 c0                	test   eax,eax
  40211a:	74 2b                	je     0x402147
  40211c:	32 c0                	xor    al,al
  40211e:	eb 30                	jmp    0x402150
  402120:	83 c9 ff             	or     ecx,0xffffffff
  402123:	89 0d dc 50 40 00    	mov    DWORD PTR ds:0x4050dc,ecx
  402129:	89 0d e0 50 40 00    	mov    DWORD PTR ds:0x4050e0,ecx
  40212f:	89 0d e4 50 40 00    	mov    DWORD PTR ds:0x4050e4,ecx
  402135:	89 0d e8 50 40 00    	mov    DWORD PTR ds:0x4050e8,ecx
  40213b:	89 0d ec 50 40 00    	mov    DWORD PTR ds:0x4050ec,ecx
  402141:	89 0d f0 50 40 00    	mov    DWORD PTR ds:0x4050f0,ecx
  402147:	c6 05 d9 50 40 00 01 	mov    BYTE PTR ds:0x4050d9,0x1
  40214e:	b0 01                	mov    al,0x1
  402150:	5e                   	pop    esi
  402151:	5d                   	pop    ebp
  402152:	c3                   	ret
  402153:	6a 05                	push   0x5
  402155:	e8 d9 06 00 00       	call   0x402833
  40215a:	cc                   	int3
  40215b:	6a 08                	push   0x8
  40215d:	68 70 3a 40 00       	push   0x403a70
  402162:	e8 a9 08 00 00       	call   0x402a10
  402167:	83 65 fc 00          	and    DWORD PTR [ebp-0x4],0x0
  40216b:	b8 4d 5a 00 00       	mov    eax,0x5a4d
  402170:	66 39 05 00 00 40 00 	cmp    WORD PTR ds:0x400000,ax
  402177:	75 5d                	jne    0x4021d6
  402179:	a1 3c 00 40 00       	mov    eax,ds:0x40003c
  40217e:	81 b8 00 00 40 00 50 	cmp    DWORD PTR [eax+0x400000],0x4550
  402185:	45 00 00 
  402188:	75 4c                	jne    0x4021d6
  40218a:	b9 0b 01 00 00       	mov    ecx,0x10b
  40218f:	66 39 88 18 00 40 00 	cmp    WORD PTR [eax+0x400018],cx
  402196:	75 3e                	jne    0x4021d6
  402198:	8b 45 08             	mov    eax,DWORD PTR [ebp+0x8]
  40219b:	b9 00 00 40 00       	mov    ecx,0x400000
  4021a0:	2b c1                	sub    eax,ecx
  4021a2:	50                   	push   eax
  4021a3:	51                   	push   ecx
  4021a4:	e8 7c fe ff ff       	call   0x402025
  4021a9:	59                   	pop    ecx
  4021aa:	59                   	pop    ecx
  4021ab:	85 c0                	test   eax,eax
  4021ad:	74 27                	je     0x4021d6
  4021af:	83 78 24 00          	cmp    DWORD PTR [eax+0x24],0x0
  4021b3:	7c 21                	jl     0x4021d6
  4021b5:	c7 45 fc fe ff ff ff 	mov    DWORD PTR [ebp-0x4],0xfffffffe
  4021bc:	b0 01                	mov    al,0x1
  4021be:	eb 1f                	jmp    0x4021df
  4021c0:	8b 45 ec             	mov    eax,DWORD PTR [ebp-0x14]
  4021c3:	8b 00                	mov    eax,DWORD PTR [eax]
  4021c5:	33 c9                	xor    ecx,ecx
  4021c7:	81 38 05 00 00 c0    	cmp    DWORD PTR [eax],0xc0000005
  4021cd:	0f 94 c1             	sete   cl
  4021d0:	8b c1                	mov    eax,ecx
  4021d2:	c3                   	ret
  4021d3:	8b 65 e8             	mov    esp,DWORD PTR [ebp-0x18]
  4021d6:	c7 45 fc fe ff ff ff 	mov    DWORD PTR [ebp-0x4],0xfffffffe
  4021dd:	32 c0                	xor    al,al
  4021df:	8b 4d f0             	mov    ecx,DWORD PTR [ebp-0x10]
  4021e2:	64 89 0d 00 00 00 00 	mov    DWORD PTR fs:0x0,ecx
  4021e9:	59                   	pop    ecx
  4021ea:	5f                   	pop    edi
  4021eb:	5e                   	pop    esi
  4021ec:	5b                   	pop    ebx
  4021ed:	c9                   	leave
  4021ee:	c3                   	ret
  4021ef:	55                   	push   ebp
  4021f0:	8b ec                	mov    ebp,esp
  4021f2:	e8 30 06 00 00       	call   0x402827
  4021f7:	85 c0                	test   eax,eax
  4021f9:	74 0f                	je     0x40220a
  4021fb:	80 7d 08 00          	cmp    BYTE PTR [ebp+0x8],0x0
  4021ff:	75 09                	jne    0x40220a
  402201:	33 c0                	xor    eax,eax
  402203:	b9 d4 50 40 00       	mov    ecx,0x4050d4
  402208:	87 01                	xchg   DWORD PTR [ecx],eax
  40220a:	5d                   	pop    ebp
  40220b:	c3                   	ret
  40220c:	55                   	push   ebp
  40220d:	8b ec                	mov    ebp,esp
  40220f:	80 3d d8 50 40 00 00 	cmp    BYTE PTR ds:0x4050d8,0x0
  402216:	74 06                	je     0x40221e
  402218:	80 7d 0c 00          	cmp    BYTE PTR [ebp+0xc],0x0
  40221c:	75 12                	jne    0x402230
  40221e:	ff 75 08             	push   DWORD PTR [ebp+0x8]
  402221:	e8 0e 09 00 00       	call   0x402b34
  402226:	ff 75 08             	push   DWORD PTR [ebp+0x8]
  402229:	e8 06 09 00 00       	call   0x402b34
  40222e:	59                   	pop    ecx
  40222f:	59                   	pop    ecx
  402230:	b0 01                	mov    al,0x1
  402232:	5d                   	pop    ebp
  402233:	c3                   	ret
  402234:	55                   	push   ebp
  402235:	8b ec                	mov    ebp,esp
  402237:	83 3d dc 50 40 00 ff 	cmp    DWORD PTR ds:0x4050dc,0xffffffff
  40223e:	ff 75 08             	push   DWORD PTR [ebp+0x8]
  402241:	75 07                	jne    0x40224a
  402243:	e8 f7 09 00 00       	call   0x402c3f
  402248:	eb 0b                	jmp    0x402255
  40224a:	68 dc 50 40 00       	push   0x4050dc
  40224f:	e8 e5 09 00 00       	call   0x402c39
  402254:	59                   	pop    ecx
  402255:	f7 d8                	neg    eax
  402257:	59                   	pop    ecx
  402258:	1b c0                	sbb    eax,eax
  40225a:	f7 d0                	not    eax
  40225c:	23 45 08             	and    eax,DWORD PTR [ebp+0x8]
  40225f:	5d                   	pop    ebp
  402260:	c3                   	ret
  402261:	55                   	push   ebp
  402262:	8b ec                	mov    ebp,esp
  402264:	ff 75 08             	push   DWORD PTR [ebp+0x8]
  402267:	e8 c8 ff ff ff       	call   0x402234
  40226c:	f7 d8                	neg    eax
  40226e:	59                   	pop    ecx
  40226f:	1b c0                	sbb    eax,eax
  402271:	f7 d8                	neg    eax
  402273:	48                   	dec    eax
  402274:	5d                   	pop    ebp
  402275:	c3                   	ret
  402276:	55                   	push   ebp
  402277:	8b ec                	mov    ebp,esp
  402279:	ff 75 08             	push   DWORD PTR [ebp+0x8]
  40227c:	e8 04 08 00 00       	call   0x402a85
  402281:	59                   	pop    ecx
  402282:	5d                   	pop    ebp
  402283:	c3                   	ret
  402284:	55                   	push   ebp
  402285:	8b ec                	mov    ebp,esp
  402287:	f6 45 08 01          	test   BYTE PTR [ebp+0x8],0x1
  40228b:	56                   	push   esi
  40228c:	8b f1                	mov    esi,ecx
  40228e:	c7 06 94 31 40 00    	mov    DWORD PTR [esi],0x403194
  402294:	74 0a                	je     0x4022a0
  402296:	6a 0c                	push   0xc
  402298:	56                   	push   esi
  402299:	e8 d8 ff ff ff       	call   0x402276
  40229e:	59                   	pop    ecx
  40229f:	59                   	pop    ecx
  4022a0:	8b c6                	mov    eax,esi
  4022a2:	5e                   	pop    esi
  4022a3:	5d                   	pop    ebp
  4022a4:	c2 04 00             	ret    0x4
  4022a7:	56                   	push   esi
  4022a8:	6a 01                	push   0x1
  4022aa:	e8 a2 09 00 00       	call   0x402c51
  4022af:	e8 6e 08 00 00       	call   0x402b22
  4022b4:	50                   	push   eax
  4022b5:	e8 c1 09 00 00       	call   0x402c7b
  4022ba:	e8 94 06 00 00       	call   0x402953
  4022bf:	8b f0                	mov    esi,eax
  4022c1:	e8 df 09 00 00       	call   0x402ca5
  4022c6:	6a 01                	push   0x1
  4022c8:	89 30                	mov    DWORD PTR [eax],esi
  4022ca:	e8 05 fe ff ff       	call   0x4020d4
  4022cf:	83 c4 0c             	add    esp,0xc
  4022d2:	5e                   	pop    esi
  4022d3:	84 c0                	test   al,al
  4022d5:	74 73                	je     0x40234a
  4022d7:	db e2                	fnclex
  4022d9:	e8 bb 08 00 00       	call   0x402b99
  4022de:	68 c5 2b 40 00       	push   0x402bc5
  4022e3:	e8 79 ff ff ff       	call   0x402261
  4022e8:	e8 36 05 00 00       	call   0x402823
  4022ed:	50                   	push   eax
  4022ee:	e8 34 09 00 00       	call   0x402c27
  4022f3:	59                   	pop    ecx
  4022f4:	59                   	pop    ecx
  4022f5:	85 c0                	test   eax,eax
  4022f7:	75 51                	jne    0x40234a
  4022f9:	e8 2a 08 00 00       	call   0x402b28
  4022fe:	e8 7e 08 00 00       	call   0x402b81
  402303:	85 c0                	test   eax,eax
  402305:	74 0b                	je     0x402312
  402307:	68 53 29 40 00       	push   0x402953
  40230c:	e8 46 09 00 00       	call   0x402c57
  402311:	59                   	pop    ecx
  402312:	e8 e1 01 00 00       	call   0x4024f8
  402317:	e8 dc 01 00 00       	call   0x4024f8
  40231c:	e8 16 08 00 00       	call   0x402b37
  402321:	e8 2d 06 00 00       	call   0x402953
  402326:	50                   	push   eax
  402327:	e8 6d 09 00 00       	call   0x402c99
  40232c:	59                   	pop    ecx
  40232d:	e8 02 08 00 00       	call   0x402b34
  402332:	84 c0                	test   al,al
  402334:	74 05                	je     0x40233b
  402336:	e8 f2 08 00 00       	call   0x402c2d
  40233b:	e8 13 06 00 00       	call   0x402953
  402340:	e8 09 06 00 00       	call   0x40294e
  402345:	85 c0                	test   eax,eax
  402347:	75 01                	jne    0x40234a
  402349:	c3                   	ret
  40234a:	6a 07                	push   0x7
  40234c:	e8 e2 04 00 00       	call   0x402833
  402351:	cc                   	int3
  402352:	e8 0d 08 00 00       	call   0x402b64
  402357:	33 c0                	xor    eax,eax
  402359:	c3                   	ret
  40235a:	e8 3a 06 00 00       	call   0x402999
  40235f:	e8 ef 05 00 00       	call   0x402953
  402364:	50                   	push   eax
  402365:	e8 35 09 00 00       	call   0x402c9f
  40236a:	59                   	pop    ecx
  40236b:	c3                   	ret
  40236c:	6a 14                	push   0x14
  40236e:	68 90 3a 40 00       	push   0x403a90
  402373:	e8 98 06 00 00       	call   0x402a10
  402378:	6a 01                	push   0x1
  40237a:	e8 1c fd ff ff       	call   0x40209b
  40237f:	59                   	pop    ecx
  402380:	84 c0                	test   al,al
  402382:	0f 84 50 01 00 00    	je     0x4024d8
  402388:	32 db                	xor    bl,bl
  40238a:	88 5d e7             	mov    BYTE PTR [ebp-0x19],bl
  40238d:	83 65 fc 00          	and    DWORD PTR [ebp-0x4],0x0
  402391:	e8 d3 fc ff ff       	call   0x402069
  402396:	88 45 dc             	mov    BYTE PTR [ebp-0x24],al
  402399:	a1 d0 50 40 00       	mov    eax,ds:0x4050d0
  40239e:	33 c9                	xor    ecx,ecx
  4023a0:	41                   	inc    ecx
  4023a1:	3b c1                	cmp    eax,ecx
  4023a3:	0f 84 2f 01 00 00    	je     0x4024d8
  4023a9:	85 c0                	test   eax,eax
  4023ab:	75 49                	jne    0x4023f6
  4023ad:	89 0d d0 50 40 00    	mov    DWORD PTR ds:0x4050d0,ecx
  4023b3:	68 70 31 40 00       	push   0x403170
  4023b8:	68 64 31 40 00       	push   0x403164
  4023bd:	e8 a7 08 00 00       	call   0x402c69
  4023c2:	59                   	pop    ecx
  4023c3:	59                   	pop    ecx
  4023c4:	85 c0                	test   eax,eax
  4023c6:	74 11                	je     0x4023d9
  4023c8:	c7 45 fc fe ff ff ff 	mov    DWORD PTR [ebp-0x4],0xfffffffe
  4023cf:	b8 ff 00 00 00       	mov    eax,0xff
  4023d4:	e9 ef 00 00 00       	jmp    0x4024c8
  4023d9:	68 60 31 40 00       	push   0x403160
  4023de:	68 50 31 40 00       	push   0x403150
  4023e3:	e8 7b 08 00 00       	call   0x402c63
  4023e8:	59                   	pop    ecx
  4023e9:	59                   	pop    ecx
  4023ea:	c7 05 d0 50 40 00 02 	mov    DWORD PTR ds:0x4050d0,0x2
  4023f1:	00 00 00 
  4023f4:	eb 05                	jmp    0x4023fb
  4023f6:	8a d9                	mov    bl,cl
  4023f8:	88 5d e7             	mov    BYTE PTR [ebp-0x19],bl
  4023fb:	ff 75 dc             	push   DWORD PTR [ebp-0x24]
  4023fe:	e8 ec fd ff ff       	call   0x4021ef
  402403:	59                   	pop    ecx
  402404:	e8 84 07 00 00       	call   0x402b8d
  402409:	8b f0                	mov    esi,eax
  40240b:	33 ff                	xor    edi,edi
  40240d:	39 3e                	cmp    DWORD PTR [esi],edi
  40240f:	74 1b                	je     0x40242c
  402411:	56                   	push   esi
  402412:	e8 44 fd ff ff       	call   0x40215b
  402417:	59                   	pop    ecx
  402418:	84 c0                	test   al,al
  40241a:	74 10                	je     0x40242c
  40241c:	8b 36                	mov    esi,DWORD PTR [esi]
  40241e:	57                   	push   edi
  40241f:	6a 02                	push   0x2
  402421:	57                   	push   edi
  402422:	8b ce                	mov    ecx,esi
  402424:	ff 15 4c 31 40 00    	call   DWORD PTR ds:0x40314c
  40242a:	ff d6                	call   esi
  40242c:	e8 62 07 00 00       	call   0x402b93
  402431:	8b f0                	mov    esi,eax
  402433:	39 3e                	cmp    DWORD PTR [esi],edi
  402435:	74 13                	je     0x40244a
  402437:	56                   	push   esi
  402438:	e8 1e fd ff ff       	call   0x40215b
  40243d:	59                   	pop    ecx
  40243e:	84 c0                	test   al,al
  402440:	74 08                	je     0x40244a
  402442:	ff 36                	push   DWORD PTR [esi]
  402444:	e8 4a 08 00 00       	call   0x402c93
  402449:	59                   	pop    ecx
  40244a:	e8 0e 08 00 00       	call   0x402c5d
  40244f:	8b f8                	mov    edi,eax
  402451:	e8 31 08 00 00       	call   0x402c87
  402456:	8b 30                	mov    esi,DWORD PTR [eax]
  402458:	e8 24 08 00 00       	call   0x402c81
  40245d:	57                   	push   edi
  40245e:	56                   	push   esi
  40245f:	ff 30                	push   DWORD PTR [eax]
  402461:	e8 ca f1 ff ff       	call   0x401630
  402466:	83 c4 0c             	add    esp,0xc
  402469:	8b f0                	mov    esi,eax
  40246b:	e8 e6 04 00 00       	call   0x402956
  402470:	84 c0                	test   al,al
  402472:	74 6b                	je     0x4024df
  402474:	84 db                	test   bl,bl
  402476:	75 05                	jne    0x40247d
  402478:	e8 c8 07 00 00       	call   0x402c45
  40247d:	6a 00                	push   0x0
  40247f:	6a 01                	push   0x1
  402481:	e8 86 fd ff ff       	call   0x40220c
  402486:	59                   	pop    ecx
  402487:	59                   	pop    ecx
  402488:	c7 45 fc fe ff ff ff 	mov    DWORD PTR [ebp-0x4],0xfffffffe
  40248f:	8b c6                	mov    eax,esi
  402491:	eb 35                	jmp    0x4024c8
  402493:	8b 4d ec             	mov    ecx,DWORD PTR [ebp-0x14]
  402496:	8b 01                	mov    eax,DWORD PTR [ecx]
  402498:	8b 00                	mov    eax,DWORD PTR [eax]
  40249a:	89 45 e0             	mov    DWORD PTR [ebp-0x20],eax
  40249d:	51                   	push   ecx
  40249e:	50                   	push   eax
  40249f:	e8 a7 07 00 00       	call   0x402c4b
  4024a4:	59                   	pop    ecx
  4024a5:	59                   	pop    ecx
  4024a6:	c3                   	ret
  4024a7:	8b 65 e8             	mov    esp,DWORD PTR [ebp-0x18]
  4024aa:	e8 a7 04 00 00       	call   0x402956
  4024af:	84 c0                	test   al,al
  4024b1:	74 32                	je     0x4024e5
  4024b3:	80 7d e7 00          	cmp    BYTE PTR [ebp-0x19],0x0
  4024b7:	75 05                	jne    0x4024be
  4024b9:	e8 cf 07 00 00       	call   0x402c8d
  4024be:	c7 45 fc fe ff ff ff 	mov    DWORD PTR [ebp-0x4],0xfffffffe
  4024c5:	8b 45 e0             	mov    eax,DWORD PTR [ebp-0x20]
  4024c8:	8b 4d f0             	mov    ecx,DWORD PTR [ebp-0x10]
  4024cb:	64 89 0d 00 00 00 00 	mov    DWORD PTR fs:0x0,ecx
  4024d2:	59                   	pop    ecx
  4024d3:	5f                   	pop    edi
  4024d4:	5e                   	pop    esi
  4024d5:	5b                   	pop    ebx
  4024d6:	c9                   	leave
  4024d7:	c3                   	ret
  4024d8:	6a 07                	push   0x7
  4024da:	e8 54 03 00 00       	call   0x402833
  4024df:	56                   	push   esi
  4024e0:	e8 8a 07 00 00       	call   0x402c6f
  4024e5:	ff 75 e0             	push   DWORD PTR [ebp-0x20]
  4024e8:	e8 88 07 00 00       	call   0x402c75
  4024ed:	cc                   	int3
  4024ee:	e8 e4 05 00 00       	call   0x402ad7
  4024f3:	e9 74 fe ff ff       	jmp    0x40236c
  4024f8:	c2 00 00             	ret    0x0
  4024fb:	55                   	push   ebp
  4024fc:	8b ec                	mov    ebp,esp
  4024fe:	6a 00                	push   0x0
  402500:	ff 15 2c 30 40 00    	call   DWORD PTR ds:0x40302c
  402506:	ff 75 08             	push   DWORD PTR [ebp+0x8]
  402509:	ff 15 04 30 40 00    	call   DWORD PTR ds:0x403004
  40250f:	68 09 04 00 c0       	push   0xc0000409
  402514:	ff 15 08 30 40 00    	call   DWORD PTR ds:0x403008
  40251a:	50                   	push   eax
  40251b:	ff 15 0c 30 40 00    	call   DWORD PTR ds:0x40300c
  402521:	5d                   	pop    ebp
  402522:	c3                   	ret
  402523:	55                   	push   ebp
  402524:	8b ec                	mov    ebp,esp
  402526:	81 ec 24 03 00 00    	sub    esp,0x324
  40252c:	6a 17                	push   0x17
  40252e:	ff 15 10 30 40 00    	call   DWORD PTR ds:0x403010
  402534:	85 c0                	test   eax,eax
  402536:	74 05                	je     0x40253d
  402538:	6a 02                	push   0x2
  40253a:	59                   	pop    ecx
  40253b:	cd 29                	int    0x29
  40253d:	a3 f8 51 40 00       	mov    ds:0x4051f8,eax
  402542:	89 0d f4 51 40 00    	mov    DWORD PTR ds:0x4051f4,ecx
  402548:	89 15 f0 51 40 00    	mov    DWORD PTR ds:0x4051f0,edx
  40254e:	89 1d ec 51 40 00    	mov    DWORD PTR ds:0x4051ec,ebx
  402554:	89 35 e8 51 40 00    	mov    DWORD PTR ds:0x4051e8,esi
  40255a:	89 3d e4 51 40 00    	mov    DWORD PTR ds:0x4051e4,edi
  402560:	66 8c 15 10 52 40 00 	data16 mov WORD PTR ds:0x405210,ss
  402567:	66 8c 0d 04 52 40 00 	data16 mov WORD PTR ds:0x405204,cs
  40256e:	66 8c 1d e0 51 40 00 	data16 mov WORD PTR ds:0x4051e0,ds
  402575:	66 8c 05 dc 51 40 00 	data16 mov WORD PTR ds:0x4051dc,es
  40257c:	66 8c 25 d8 51 40 00 	data16 mov WORD PTR ds:0x4051d8,fs
  402583:	66 8c 2d d4 51 40 00 	data16 mov WORD PTR ds:0x4051d4,gs
  40258a:	9c                   	pushf
  40258b:	8f 05 08 52 40 00    	pop    DWORD PTR ds:0x405208
  402591:	8b 45 00             	mov    eax,DWORD PTR [ebp+0x0]
  402594:	a3 fc 51 40 00       	mov    ds:0x4051fc,eax
  402599:	8b 45 04             	mov    eax,DWORD PTR [ebp+0x4]
  40259c:	a3 00 52 40 00       	mov    ds:0x405200,eax
  4025a1:	8d 45 08             	lea    eax,[ebp+0x8]
  4025a4:	a3 0c 52 40 00       	mov    ds:0x40520c,eax
  4025a9:	8b 85 dc fc ff ff    	mov    eax,DWORD PTR [ebp-0x324]
  4025af:	c7 05 48 51 40 00 01 	mov    DWORD PTR ds:0x405148,0x10001
  4025b6:	00 01 00 
  4025b9:	a1 00 52 40 00       	mov    eax,ds:0x405200
  4025be:	a3 04 51 40 00       	mov    ds:0x405104,eax
  4025c3:	c7 05 f8 50 40 00 09 	mov    DWORD PTR ds:0x4050f8,0xc0000409
  4025ca:	04 00 c0 
  4025cd:	c7 05 fc 50 40 00 01 	mov    DWORD PTR ds:0x4050fc,0x1
  4025d4:	00 00 00 
  4025d7:	c7 05 08 51 40 00 01 	mov    DWORD PTR ds:0x405108,0x1
  4025de:	00 00 00 
  4025e1:	6a 04                	push   0x4
  4025e3:	58                   	pop    eax
  4025e4:	6b c0 00             	imul   eax,eax,0x0
  4025e7:	c7 80 0c 51 40 00 02 	mov    DWORD PTR [eax+0x40510c],0x2
  4025ee:	00 00 00 
  4025f1:	6a 04                	push   0x4
  4025f3:	58                   	pop    eax
  4025f4:	6b c0 00             	imul   eax,eax,0x0
  4025f7:	8b 0d 08 50 40 00    	mov    ecx,DWORD PTR ds:0x405008
  4025fd:	89 4c 05 f8          	mov    DWORD PTR [ebp+eax*1-0x8],ecx
  402601:	6a 04                	push   0x4
  402603:	58                   	pop    eax
  402604:	c1 e0 00             	shl    eax,0x0
  402607:	8b 0d 04 50 40 00    	mov    ecx,DWORD PTR ds:0x405004
  40260d:	89 4c 05 f8          	mov    DWORD PTR [ebp+eax*1-0x8],ecx
  402611:	68 98 31 40 00       	push   0x403198
  402616:	e8 e0 fe ff ff       	call   0x4024fb
  40261b:	c9                   	leave
  40261c:	c3                   	ret
  40261d:	83 61 04 00          	and    DWORD PTR [ecx+0x4],0x0
  402621:	8b c1                	mov    eax,ecx
  402623:	83 61 08 00          	and    DWORD PTR [ecx+0x8],0x0
  402627:	c7 41 04 b8 31 40 00 	mov    DWORD PTR [ecx+0x4],0x4031b8
  40262e:	c7 01 b0 31 40 00    	mov    DWORD PTR [ecx],0x4031b0
  402634:	c3                   	ret
  402635:	55                   	push   ebp
  402636:	8b ec                	mov    ebp,esp
  402638:	83 ec 0c             	sub    esp,0xc
  40263b:	8d 4d f4             	lea    ecx,[ebp-0xc]
  40263e:	e8 da ff ff ff       	call   0x40261d
  402643:	68 ac 3a 40 00       	push   0x403aac
  402648:	8d 45 f4             	lea    eax,[ebp-0xc]
  40264b:	50                   	push   eax
  40264c:	e8 ac 05 00 00       	call   0x402bfd
  402651:	cc                   	int3
  402652:	55                   	push   ebp
  402653:	8b ec                	mov    ebp,esp
  402655:	83 25 14 54 40 00 00 	and    DWORD PTR ds:0x405414,0x0
  40265c:	83 ec 24             	sub    esp,0x24
  40265f:	83 0d 0c 50 40 00 01 	or     DWORD PTR ds:0x40500c,0x1
  402666:	6a 0a                	push   0xa
  402668:	ff 15 10 30 40 00    	call   DWORD PTR ds:0x403010
  40266e:	85 c0                	test   eax,eax
  402670:	0f 84 a9 01 00 00    	je     0x40281f
  402676:	83 65 f0 00          	and    DWORD PTR [ebp-0x10],0x0
  40267a:	33 c0                	xor    eax,eax
  40267c:	53                   	push   ebx
  40267d:	56                   	push   esi
  40267e:	57                   	push   edi
  40267f:	33 c9                	xor    ecx,ecx
  402681:	8d 7d dc             	lea    edi,[ebp-0x24]
  402684:	53                   	push   ebx
  402685:	0f a2                	cpuid
  402687:	8b f3                	mov    esi,ebx
  402689:	5b                   	pop    ebx
  40268a:	89 07                	mov    DWORD PTR [edi],eax
  40268c:	89 77 04             	mov    DWORD PTR [edi+0x4],esi
  40268f:	89 4f 08             	mov    DWORD PTR [edi+0x8],ecx
  402692:	33 c9                	xor    ecx,ecx
  402694:	89 57 0c             	mov    DWORD PTR [edi+0xc],edx
  402697:	8b 45 dc             	mov    eax,DWORD PTR [ebp-0x24]
  40269a:	8b 7d e4             	mov    edi,DWORD PTR [ebp-0x1c]
  40269d:	89 45 f4             	mov    DWORD PTR [ebp-0xc],eax
  4026a0:	81 f7 6e 74 65 6c    	xor    edi,0x6c65746e
  4026a6:	8b 45 e8             	mov    eax,DWORD PTR [ebp-0x18]
  4026a9:	35 69 6e 65 49       	xor    eax,0x49656e69
  4026ae:	89 45 f8             	mov    DWORD PTR [ebp-0x8],eax
  4026b1:	8b 45 e0             	mov    eax,DWORD PTR [ebp-0x20]
  4026b4:	35 47 65 6e 75       	xor    eax,0x756e6547
  4026b9:	89 45 fc             	mov    DWORD PTR [ebp-0x4],eax
  4026bc:	33 c0                	xor    eax,eax
  4026be:	40                   	inc    eax
  4026bf:	53                   	push   ebx
  4026c0:	0f a2                	cpuid
  4026c2:	8b f3                	mov    esi,ebx
  4026c4:	5b                   	pop    ebx
  4026c5:	8d 5d dc             	lea    ebx,[ebp-0x24]
  4026c8:	89 03                	mov    DWORD PTR [ebx],eax
  4026ca:	8b 45 fc             	mov    eax,DWORD PTR [ebp-0x4]
  4026cd:	89 73 04             	mov    DWORD PTR [ebx+0x4],esi
  4026d0:	0b c7                	or     eax,edi
  4026d2:	0b 45 f8             	or     eax,DWORD PTR [ebp-0x8]
  4026d5:	89 4b 08             	mov    DWORD PTR [ebx+0x8],ecx
  4026d8:	89 53 0c             	mov    DWORD PTR [ebx+0xc],edx
  4026db:	75 43                	jne    0x402720
  4026dd:	8b 45 dc             	mov    eax,DWORD PTR [ebp-0x24]
  4026e0:	25 f0 3f ff 0f       	and    eax,0xfff3ff0
  4026e5:	3d c0 06 01 00       	cmp    eax,0x106c0
  4026ea:	74 23                	je     0x40270f
  4026ec:	3d 60 06 02 00       	cmp    eax,0x20660
  4026f1:	74 1c                	je     0x40270f
  4026f3:	3d 70 06 02 00       	cmp    eax,0x20670
  4026f8:	74 15                	je     0x40270f
  4026fa:	3d 50 06 03 00       	cmp    eax,0x30650
  4026ff:	74 0e                	je     0x40270f
  402701:	3d 60 06 03 00       	cmp    eax,0x30660
  402706:	74 07                	je     0x40270f
  402708:	3d 70 06 03 00       	cmp    eax,0x30670
  40270d:	75 11                	jne    0x402720
  40270f:	8b 3d 18 54 40 00    	mov    edi,DWORD PTR ds:0x405418
  402715:	83 cf 01             	or     edi,0x1
  402718:	89 3d 18 54 40 00    	mov    DWORD PTR ds:0x405418,edi
  40271e:	eb 06                	jmp    0x402726
  402720:	8b 3d 18 54 40 00    	mov    edi,DWORD PTR ds:0x405418
  402726:	8b 4d e4             	mov    ecx,DWORD PTR [ebp-0x1c]
  402729:	6a 07                	push   0x7
  40272b:	58                   	pop    eax
  40272c:	89 4d fc             	mov    DWORD PTR [ebp-0x4],ecx
  40272f:	39 45 f4             	cmp    DWORD PTR [ebp-0xc],eax
  402732:	7c 2f                	jl     0x402763
  402734:	33 c9                	xor    ecx,ecx
  402736:	53                   	push   ebx
  402737:	0f a2                	cpuid
  402739:	8b f3                	mov    esi,ebx
  40273b:	5b                   	pop    ebx
  40273c:	8d 5d dc             	lea    ebx,[ebp-0x24]
  40273f:	89 03                	mov    DWORD PTR [ebx],eax
  402741:	89 73 04             	mov    DWORD PTR [ebx+0x4],esi
  402744:	89 4b 08             	mov    DWORD PTR [ebx+0x8],ecx
  402747:	8b 4d fc             	mov    ecx,DWORD PTR [ebp-0x4]
  40274a:	89 53 0c             	mov    DWORD PTR [ebx+0xc],edx
  40274d:	8b 5d e0             	mov    ebx,DWORD PTR [ebp-0x20]
  402750:	f7 c3 00 02 00 00    	test   ebx,0x200
  402756:	74 0e                	je     0x402766
  402758:	83 cf 02             	or     edi,0x2
  40275b:	89 3d 18 54 40 00    	mov    DWORD PTR ds:0x405418,edi
  402761:	eb 03                	jmp    0x402766
  402763:	8b 5d f0             	mov    ebx,DWORD PTR [ebp-0x10]
  402766:	a1 0c 50 40 00       	mov    eax,ds:0x40500c
  40276b:	83 c8 02             	or     eax,0x2
  40276e:	c7 05 14 54 40 00 01 	mov    DWORD PTR ds:0x405414,0x1
  402775:	00 00 00 
  402778:	a3 0c 50 40 00       	mov    ds:0x40500c,eax
  40277d:	f7 c1 00 00 10 00    	test   ecx,0x100000
  402783:	0f 84 93 00 00 00    	je     0x40281c
  402789:	83 c8 04             	or     eax,0x4
  40278c:	c7 05 14 54 40 00 02 	mov    DWORD PTR ds:0x405414,0x2
  402793:	00 00 00 
  402796:	a3 0c 50 40 00       	mov    ds:0x40500c,eax
  40279b:	f7 c1 00 00 00 08    	test   ecx,0x8000000
  4027a1:	74 79                	je     0x40281c
  4027a3:	f7 c1 00 00 00 10    	test   ecx,0x10000000
  4027a9:	74 71                	je     0x40281c
  4027ab:	33 c9                	xor    ecx,ecx
  4027ad:	0f 01 d0             	xgetbv
  4027b0:	89 45 ec             	mov    DWORD PTR [ebp-0x14],eax
  4027b3:	89 55 f0             	mov    DWORD PTR [ebp-0x10],edx
  4027b6:	8b 45 ec             	mov    eax,DWORD PTR [ebp-0x14]
  4027b9:	8b 4d f0             	mov    ecx,DWORD PTR [ebp-0x10]
  4027bc:	6a 06                	push   0x6
  4027be:	5e                   	pop    esi
  4027bf:	23 c6                	and    eax,esi
  4027c1:	3b c6                	cmp    eax,esi
  4027c3:	75 57                	jne    0x40281c
  4027c5:	a1 0c 50 40 00       	mov    eax,ds:0x40500c
  4027ca:	83 c8 08             	or     eax,0x8
  4027cd:	c7 05 14 54 40 00 03 	mov    DWORD PTR ds:0x405414,0x3
  4027d4:	00 00 00 
  4027d7:	a3 0c 50 40 00       	mov    ds:0x40500c,eax
  4027dc:	f6 c3 20             	test   bl,0x20
  4027df:	74 3b                	je     0x40281c
  4027e1:	83 c8 20             	or     eax,0x20
  4027e4:	c7 05 14 54 40 00 05 	mov    DWORD PTR ds:0x405414,0x5
  4027eb:	00 00 00 
  4027ee:	a3 0c 50 40 00       	mov    ds:0x40500c,eax
  4027f3:	b8 00 00 03 d0       	mov    eax,0xd0030000
  4027f8:	23 d8                	and    ebx,eax
  4027fa:	3b d8                	cmp    ebx,eax
  4027fc:	75 1e                	jne    0x40281c
  4027fe:	8b 45 ec             	mov    eax,DWORD PTR [ebp-0x14]
  402801:	ba e0 00 00 00       	mov    edx,0xe0
  402806:	8b 4d f0             	mov    ecx,DWORD PTR [ebp-0x10]
  402809:	23 c2                	and    eax,edx
  40280b:	3b c2                	cmp    eax,edx
  40280d:	75 0d                	jne    0x40281c
  40280f:	83 0d 0c 50 40 00 40 	or     DWORD PTR ds:0x40500c,0x40
  402816:	89 35 14 54 40 00    	mov    DWORD PTR ds:0x405414,esi
  40281c:	5f                   	pop    edi
  40281d:	5e                   	pop    esi
  40281e:	5b                   	pop    ebx
  40281f:	33 c0                	xor    eax,eax
  402821:	c9                   	leave
  402822:	c3                   	ret
  402823:	33 c0                	xor    eax,eax
  402825:	40                   	inc    eax
  402826:	c3                   	ret
  402827:	33 c0                	xor    eax,eax
  402829:	39 05 14 50 40 00    	cmp    DWORD PTR ds:0x405014,eax
  40282f:	0f 95 c0             	setne  al
  402832:	c3                   	ret
  402833:	55                   	push   ebp
  402834:	8b ec                	mov    ebp,esp
  402836:	81 ec 24 03 00 00    	sub    esp,0x324
  40283c:	53                   	push   ebx
  40283d:	6a 17                	push   0x17
  40283f:	ff 15 10 30 40 00    	call   DWORD PTR ds:0x403010
  402845:	85 c0                	test   eax,eax
  402847:	74 05                	je     0x40284e
  402849:	8b 4d 08             	mov    ecx,DWORD PTR [ebp+0x8]
  40284c:	cd 29                	int    0x29
  40284e:	6a 03                	push   0x3
  402850:	e8 a6 01 00 00       	call   0x4029fb
  402855:	c7 04 24 cc 02 00 00 	mov    DWORD PTR [esp],0x2cc
  40285c:	8d 85 dc fc ff ff    	lea    eax,[ebp-0x324]
  402862:	6a 00                	push   0x0
  402864:	50                   	push   eax
  402865:	e8 a5 03 00 00       	call   0x402c0f
  40286a:	83 c4 0c             	add    esp,0xc
  40286d:	89 85 8c fd ff ff    	mov    DWORD PTR [ebp-0x274],eax
  402873:	89 8d 88 fd ff ff    	mov    DWORD PTR [ebp-0x278],ecx
  402879:	89 95 84 fd ff ff    	mov    DWORD PTR [ebp-0x27c],edx
  40287f:	89 9d 80 fd ff ff    	mov    DWORD PTR [ebp-0x280],ebx
  402885:	89 b5 7c fd ff ff    	mov    DWORD PTR [ebp-0x284],esi
  40288b:	89 bd 78 fd ff ff    	mov    DWORD PTR [ebp-0x288],edi
  402891:	66 8c 95 a4 fd ff ff 	data16 mov WORD PTR [ebp-0x25c],ss
  402898:	66 8c 8d 98 fd ff ff 	data16 mov WORD PTR [ebp-0x268],cs
  40289f:	66 8c 9d 74 fd ff ff 	data16 mov WORD PTR [ebp-0x28c],ds
  4028a6:	66 8c 85 70 fd ff ff 	data16 mov WORD PTR [ebp-0x290],es
  4028ad:	66 8c a5 6c fd ff ff 	data16 mov WORD PTR [ebp-0x294],fs
  4028b4:	66 8c ad 68 fd ff ff 	data16 mov WORD PTR [ebp-0x298],gs
  4028bb:	9c                   	pushf
  4028bc:	8f 85 9c fd ff ff    	pop    DWORD PTR [ebp-0x264]
  4028c2:	8b 45 04             	mov    eax,DWORD PTR [ebp+0x4]
  4028c5:	89 85 94 fd ff ff    	mov    DWORD PTR [ebp-0x26c],eax
  4028cb:	8d 45 04             	lea    eax,[ebp+0x4]
  4028ce:	89 85 a0 fd ff ff    	mov    DWORD PTR [ebp-0x260],eax
  4028d4:	c7 85 dc fc ff ff 01 	mov    DWORD PTR [ebp-0x324],0x10001
  4028db:	00 01 00 
  4028de:	8b 40 fc             	mov    eax,DWORD PTR [eax-0x4]
  4028e1:	6a 50                	push   0x50
  4028e3:	89 85 90 fd ff ff    	mov    DWORD PTR [ebp-0x270],eax
  4028e9:	8d 45 a8             	lea    eax,[ebp-0x58]
  4028ec:	6a 00                	push   0x0
  4028ee:	50                   	push   eax
  4028ef:	e8 1b 03 00 00       	call   0x402c0f
  4028f4:	8b 45 04             	mov    eax,DWORD PTR [ebp+0x4]
  4028f7:	83 c4 0c             	add    esp,0xc
  4028fa:	c7 45 a8 15 00 00 40 	mov    DWORD PTR [ebp-0x58],0x40000015
  402901:	c7 45 ac 01 00 00 00 	mov    DWORD PTR [ebp-0x54],0x1
  402908:	89 45 b4             	mov    DWORD PTR [ebp-0x4c],eax
  40290b:	ff 15 14 30 40 00    	call   DWORD PTR ds:0x403014
  402911:	6a 00                	push   0x0
  402913:	8d 58 ff             	lea    ebx,[eax-0x1]
  402916:	f7 db                	neg    ebx
  402918:	8d 45 a8             	lea    eax,[ebp-0x58]
  40291b:	89 45 f8             	mov    DWORD PTR [ebp-0x8],eax
  40291e:	8d 85 dc fc ff ff    	lea    eax,[ebp-0x324]
  402924:	1a db                	sbb    bl,bl
  402926:	89 45 fc             	mov    DWORD PTR [ebp-0x4],eax
  402929:	fe c3                	inc    bl
  40292b:	ff 15 2c 30 40 00    	call   DWORD PTR ds:0x40302c
  402931:	8d 45 f8             	lea    eax,[ebp-0x8]
  402934:	50                   	push   eax
  402935:	ff 15 04 30 40 00    	call   DWORD PTR ds:0x403004
  40293b:	85 c0                	test   eax,eax
  40293d:	75 0c                	jne    0x40294b
  40293f:	84 db                	test   bl,bl
  402941:	75 08                	jne    0x40294b
  402943:	6a 03                	push   0x3
  402945:	e8 b1 00 00 00       	call   0x4029fb
  40294a:	59                   	pop    ecx
  40294b:	5b                   	pop    ebx
  40294c:	c9                   	leave
  40294d:	c3                   	ret
  40294e:	e9 00 00 00 00       	jmp    0x402953
  402953:	33 c0                	xor    eax,eax
  402955:	c3                   	ret
  402956:	6a 00                	push   0x0
  402958:	ff 15 00 30 40 00    	call   DWORD PTR ds:0x403000
  40295e:	85 c0                	test   eax,eax
  402960:	74 34                	je     0x402996
  402962:	b9 4d 5a 00 00       	mov    ecx,0x5a4d
  402967:	66 39 08             	cmp    WORD PTR [eax],cx
  40296a:	75 2a                	jne    0x402996
  40296c:	8b 48 3c             	mov    ecx,DWORD PTR [eax+0x3c]
  40296f:	03 c8                	add    ecx,eax
  402971:	81 39 50 45 00 00    	cmp    DWORD PTR [ecx],0x4550
  402977:	75 1d                	jne    0x402996
  402979:	b8 0b 01 00 00       	mov    eax,0x10b
  40297e:	66 39 41 18          	cmp    WORD PTR [ecx+0x18],ax
  402982:	75 12                	jne    0x402996
  402984:	83 79 74 0e          	cmp    DWORD PTR [ecx+0x74],0xe
  402988:	76 0c                	jbe    0x402996
  40298a:	83 b9 e8 00 00 00 00 	cmp    DWORD PTR [ecx+0xe8],0x0
  402991:	74 03                	je     0x402996
  402993:	b0 01                	mov    al,0x1
  402995:	c3                   	ret
  402996:	32 c0                	xor    al,al
  402998:	c3                   	ret
  402999:	68 a5 29 40 00       	push   0x4029a5
  40299e:	ff 15 2c 30 40 00    	call   DWORD PTR ds:0x40302c
  4029a4:	c3                   	ret
  4029a5:	55                   	push   ebp
  4029a6:	8b ec                	mov    ebp,esp
  4029a8:	56                   	push   esi
  4029a9:	57                   	push   edi
  4029aa:	8b 7d 08             	mov    edi,DWORD PTR [ebp+0x8]
  4029ad:	8b 37                	mov    esi,DWORD PTR [edi]
  4029af:	81 3e 63 73 6d e0    	cmp    DWORD PTR [esi],0xe06d7363
  4029b5:	75 25                	jne    0x4029dc
  4029b7:	83 7e 10 03          	cmp    DWORD PTR [esi+0x10],0x3
  4029bb:	75 1f                	jne    0x4029dc
  4029bd:	8b 46 14             	mov    eax,DWORD PTR [esi+0x14]
  4029c0:	3d 20 05 93 19       	cmp    eax,0x19930520
  4029c5:	74 1d                	je     0x4029e4
  4029c7:	3d 21 05 93 19       	cmp    eax,0x19930521
  4029cc:	74 16                	je     0x4029e4
  4029ce:	3d 22 05 93 19       	cmp    eax,0x19930522
  4029d3:	74 0f                	je     0x4029e4
  4029d5:	3d 00 40 99 01       	cmp    eax,0x1994000
  4029da:	74 08                	je     0x4029e4
  4029dc:	5f                   	pop    edi
  4029dd:	33 c0                	xor    eax,eax
  4029df:	5e                   	pop    esi
  4029e0:	5d                   	pop    ebp
  4029e1:	c2 04 00             	ret    0x4
  4029e4:	e8 1a 02 00 00       	call   0x402c03
  4029e9:	89 30                	mov    DWORD PTR [eax],esi
  4029eb:	8b 77 04             	mov    esi,DWORD PTR [edi+0x4]
  4029ee:	e8 16 02 00 00       	call   0x402c09
  4029f3:	89 30                	mov    DWORD PTR [eax],esi
  4029f5:	e8 b1 02 00 00       	call   0x402cab
  4029fa:	cc                   	int3
  4029fb:	83 25 1c 54 40 00 00 	and    DWORD PTR ds:0x40541c,0x0
  402a02:	c3                   	ret
  402a03:	cc                   	int3
  402a04:	cc                   	int3
  402a05:	cc                   	int3
  402a06:	cc                   	int3
  402a07:	cc                   	int3
  402a08:	cc                   	int3
  402a09:	cc                   	int3
  402a0a:	cc                   	int3
  402a0b:	cc                   	int3
  402a0c:	cc                   	int3
  402a0d:	cc                   	int3
  402a0e:	cc                   	int3
  402a0f:	cc                   	int3
  402a10:	68 56 2a 40 00       	push   0x402a56
  402a15:	64 ff 35 00 00 00 00 	push   DWORD PTR fs:0x0
  402a1c:	8b 44 24 10          	mov    eax,DWORD PTR [esp+0x10]
  402a20:	89 6c 24 10          	mov    DWORD PTR [esp+0x10],ebp
  402a24:	8d 6c 24 10          	lea    ebp,[esp+0x10]
  402a28:	2b e0                	sub    esp,eax
  402a2a:	53                   	push   ebx
  402a2b:	56                   	push   esi
  402a2c:	57                   	push   edi
  402a2d:	a1 08 50 40 00       	mov    eax,ds:0x405008
  402a32:	31 45 fc             	xor    DWORD PTR [ebp-0x4],eax
  402a35:	33 c5                	xor    eax,ebp
  402a37:	50                   	push   eax
  402a38:	89 65 e8             	mov    DWORD PTR [ebp-0x18],esp
  402a3b:	ff 75 f8             	push   DWORD PTR [ebp-0x8]
  402a3e:	8b 45 fc             	mov    eax,DWORD PTR [ebp-0x4]
  402a41:	c7 45 fc fe ff ff ff 	mov    DWORD PTR [ebp-0x4],0xfffffffe
  402a48:	89 45 f8             	mov    DWORD PTR [ebp-0x8],eax
  402a4b:	8d 45 f0             	lea    eax,[ebp-0x10]
  402a4e:	64 a3 00 00 00 00    	mov    fs:0x0,eax
  402a54:	f2 c3                	bnd ret
  402a56:	55                   	push   ebp
  402a57:	8b ec                	mov    ebp,esp
  402a59:	56                   	push   esi
  402a5a:	8b 75 08             	mov    esi,DWORD PTR [ebp+0x8]
  402a5d:	ff 36                	push   DWORD PTR [esi]
  402a5f:	e8 59 02 00 00       	call   0x402cbd
  402a64:	ff 75 14             	push   DWORD PTR [ebp+0x14]
  402a67:	89 06                	mov    DWORD PTR [esi],eax
  402a69:	ff 75 10             	push   DWORD PTR [ebp+0x10]
  402a6c:	ff 75 0c             	push   DWORD PTR [ebp+0xc]
  402a6f:	56                   	push   esi
  402a70:	68 e4 1f 40 00       	push   0x401fe4
  402a75:	68 08 50 40 00       	push   0x405008
  402a7a:	e8 96 01 00 00       	call   0x402c15
  402a7f:	83 c4 1c             	add    esp,0x1c
  402a82:	5e                   	pop    esi
  402a83:	5d                   	pop    ebp
  402a84:	c3                   	ret
  402a85:	e9 27 02 00 00       	jmp    0x402cb1
  402a8a:	55                   	push   ebp
  402a8b:	8b ec                	mov    ebp,esp
  402a8d:	83 ec 14             	sub    esp,0x14
  402a90:	83 65 f4 00          	and    DWORD PTR [ebp-0xc],0x0
  402a94:	8d 45 f4             	lea    eax,[ebp-0xc]
  402a97:	83 65 f8 00          	and    DWORD PTR [ebp-0x8],0x0
  402a9b:	50                   	push   eax
  402a9c:	ff 15 1c 30 40 00    	call   DWORD PTR ds:0x40301c
  402aa2:	8b 45 f8             	mov    eax,DWORD PTR [ebp-0x8]
  402aa5:	33 45 f4             	xor    eax,DWORD PTR [ebp-0xc]
  402aa8:	89 45 fc             	mov    DWORD PTR [ebp-0x4],eax
  402aab:	ff 15 20 30 40 00    	call   DWORD PTR ds:0x403020
  402ab1:	31 45 fc             	xor    DWORD PTR [ebp-0x4],eax
  402ab4:	ff 15 24 30 40 00    	call   DWORD PTR ds:0x403024
  402aba:	31 45 fc             	xor    DWORD PTR [ebp-0x4],eax
  402abd:	8d 45 ec             	lea    eax,[ebp-0x14]
  402ac0:	50                   	push   eax
  402ac1:	ff 15 28 30 40 00    	call   DWORD PTR ds:0x403028
  402ac7:	8b 45 f0             	mov    eax,DWORD PTR [ebp-0x10]
  402aca:	8d 4d fc             	lea    ecx,[ebp-0x4]
  402acd:	33 45 ec             	xor    eax,DWORD PTR [ebp-0x14]
  402ad0:	33 45 fc             	xor    eax,DWORD PTR [ebp-0x4]
  402ad3:	33 c1                	xor    eax,ecx
  402ad5:	c9                   	leave
  402ad6:	c3                   	ret
  402ad7:	8b 0d 08 50 40 00    	mov    ecx,DWORD PTR ds:0x405008
  402add:	56                   	push   esi
  402ade:	57                   	push   edi
  402adf:	bf 4e e6 40 bb       	mov    edi,0xbb40e64e
  402ae4:	be 00 00 ff ff       	mov    esi,0xffff0000
  402ae9:	3b cf                	cmp    ecx,edi
  402aeb:	74 04                	je     0x402af1
  402aed:	85 ce                	test   esi,ecx
  402aef:	75 26                	jne    0x402b17
  402af1:	e8 94 ff ff ff       	call   0x402a8a
  402af6:	8b c8                	mov    ecx,eax
  402af8:	3b cf                	cmp    ecx,edi
  402afa:	75 07                	jne    0x402b03
  402afc:	b9 4f e6 40 bb       	mov    ecx,0xbb40e64f
  402b01:	eb 0e                	jmp    0x402b11
  402b03:	85 ce                	test   esi,ecx
  402b05:	75 0a                	jne    0x402b11
  402b07:	0d 11 47 00 00       	or     eax,0x4711
  402b0c:	c1 e0 10             	shl    eax,0x10
  402b0f:	0b c8                	or     ecx,eax
  402b11:	89 0d 08 50 40 00    	mov    DWORD PTR ds:0x405008,ecx
  402b17:	f7 d1                	not    ecx
  402b19:	5f                   	pop    edi
  402b1a:	89 0d 04 50 40 00    	mov    DWORD PTR ds:0x405004,ecx
  402b20:	5e                   	pop    esi
  402b21:	c3                   	ret
  402b22:	b8 00 40 00 00       	mov    eax,0x4000
  402b27:	c3                   	ret
  402b28:	68 20 54 40 00       	push   0x405420
  402b2d:	ff 15 18 30 40 00    	call   DWORD PTR ds:0x403018
  402b33:	c3                   	ret
  402b34:	b0 01                	mov    al,0x1
  402b36:	c3                   	ret
  402b37:	68 00 00 03 00       	push   0x30000
  402b3c:	68 00 00 01 00       	push   0x10000
  402b41:	6a 00                	push   0x0
  402b43:	e8 6f 01 00 00       	call   0x402cb7
  402b48:	83 c4 0c             	add    esp,0xc
  402b4b:	85 c0                	test   eax,eax
  402b4d:	75 01                	jne    0x402b50
  402b4f:	c3                   	ret
  402b50:	6a 07                	push   0x7
  402b52:	e8 dc fc ff ff       	call   0x402833
  402b57:	cc                   	int3
  402b58:	b8 28 54 40 00       	mov    eax,0x405428
  402b5d:	c3                   	ret
  402b5e:	b8 30 54 40 00       	mov    eax,0x405430
  402b63:	c3                   	ret
  402b64:	e8 ef ff ff ff       	call   0x402b58
  402b69:	8b 48 04             	mov    ecx,DWORD PTR [eax+0x4]
  402b6c:	83 08 24             	or     DWORD PTR [eax],0x24
  402b6f:	89 48 04             	mov    DWORD PTR [eax+0x4],ecx
  402b72:	e8 e7 ff ff ff       	call   0x402b5e
  402b77:	8b 48 04             	mov    ecx,DWORD PTR [eax+0x4]
  402b7a:	83 08 02             	or     DWORD PTR [eax],0x2
  402b7d:	89 48 04             	mov    DWORD PTR [eax+0x4],ecx
  402b80:	c3                   	ret
  402b81:	33 c0                	xor    eax,eax
  402b83:	39 05 10 50 40 00    	cmp    DWORD PTR ds:0x405010,eax
  402b89:	0f 94 c0             	sete   al
  402b8c:	c3                   	ret
  402b8d:	b8 48 54 40 00       	mov    eax,0x405448
  402b92:	c3                   	ret
  402b93:	b8 44 54 40 00       	mov    eax,0x405444
  402b98:	c3                   	ret
  402b99:	53                   	push   ebx
  402b9a:	56                   	push   esi
  402b9b:	be e8 38 40 00       	mov    esi,0x4038e8
  402ba0:	bb e8 38 40 00       	mov    ebx,0x4038e8
  402ba5:	3b f3                	cmp    esi,ebx
  402ba7:	73 19                	jae    0x402bc2
  402ba9:	57                   	push   edi
  402baa:	8b 3e                	mov    edi,DWORD PTR [esi]
  402bac:	85 ff                	test   edi,edi
  402bae:	74 0a                	je     0x402bba
  402bb0:	8b cf                	mov    ecx,edi
  402bb2:	ff 15 4c 31 40 00    	call   DWORD PTR ds:0x40314c
  402bb8:	ff d7                	call   edi
  402bba:	83 c6 04             	add    esi,0x4
  402bbd:	3b f3                	cmp    esi,ebx
  402bbf:	72 e9                	jb     0x402baa
  402bc1:	5f                   	pop    edi
  402bc2:	5e                   	pop    esi
  402bc3:	5b                   	pop    ebx
  402bc4:	c3                   	ret
  402bc5:	53                   	push   ebx
  402bc6:	56                   	push   esi
  402bc7:	be f0 38 40 00       	mov    esi,0x4038f0
  402bcc:	bb f0 38 40 00       	mov    ebx,0x4038f0
  402bd1:	3b f3                	cmp    esi,ebx
  402bd3:	73 19                	jae    0x402bee
  402bd5:	57                   	push   edi
  402bd6:	8b 3e                	mov    edi,DWORD PTR [esi]
  402bd8:	85 ff                	test   edi,edi
  402bda:	74 0a                	je     0x402be6
  402bdc:	8b cf                	mov    ecx,edi
  402bde:	ff 15 4c 31 40 00    	call   DWORD PTR ds:0x40314c
  402be4:	ff d7                	call   edi
  402be6:	83 c6 04             	add    esi,0x4
  402be9:	3b f3                	cmp    esi,ebx
  402beb:	72 e9                	jb     0x402bd6
  402bed:	5f                   	pop    edi
  402bee:	5e                   	pop    esi
  402bef:	5b                   	pop    ebx
  402bf0:	c3                   	ret
  402bf1:	ff 25 b4 30 40 00    	jmp    DWORD PTR ds:0x4030b4
  402bf7:	ff 25 a8 30 40 00    	jmp    DWORD PTR ds:0x4030a8
  402bfd:	ff 25 b8 30 40 00    	jmp    DWORD PTR ds:0x4030b8
  402c03:	ff 25 9c 30 40 00    	jmp    DWORD PTR ds:0x40309c
  402c09:	ff 25 98 30 40 00    	jmp    DWORD PTR ds:0x403098
  402c0f:	ff 25 94 30 40 00    	jmp    DWORD PTR ds:0x403094
  402c15:	ff 25 a4 30 40 00    	jmp    DWORD PTR ds:0x4030a4
  402c1b:	ff 25 c8 30 40 00    	jmp    DWORD PTR ds:0x4030c8
  402c21:	ff 25 c4 30 40 00    	jmp    DWORD PTR ds:0x4030c4
  402c27:	ff 25 38 31 40 00    	jmp    DWORD PTR ds:0x403138
  402c2d:	ff 25 08 31 40 00    	jmp    DWORD PTR ds:0x403108
  402c33:	ff 25 34 31 40 00    	jmp    DWORD PTR ds:0x403134
  402c39:	ff 25 30 31 40 00    	jmp    DWORD PTR ds:0x403130
  402c3f:	ff 25 2c 31 40 00    	jmp    DWORD PTR ds:0x40312c
  402c45:	ff 25 28 31 40 00    	jmp    DWORD PTR ds:0x403128
  402c4b:	ff 25 24 31 40 00    	jmp    DWORD PTR ds:0x403124
  402c51:	ff 25 20 31 40 00    	jmp    DWORD PTR ds:0x403120
  402c57:	ff 25 dc 30 40 00    	jmp    DWORD PTR ds:0x4030dc
  402c5d:	ff 25 1c 31 40 00    	jmp    DWORD PTR ds:0x40311c
  402c63:	ff 25 18 31 40 00    	jmp    DWORD PTR ds:0x403118
  402c69:	ff 25 14 31 40 00    	jmp    DWORD PTR ds:0x403114
  402c6f:	ff 25 10 31 40 00    	jmp    DWORD PTR ds:0x403110
  402c75:	ff 25 0c 31 40 00    	jmp    DWORD PTR ds:0x40310c
  402c7b:	ff 25 44 31 40 00    	jmp    DWORD PTR ds:0x403144
  402c81:	ff 25 04 31 40 00    	jmp    DWORD PTR ds:0x403104
  402c87:	ff 25 f8 30 40 00    	jmp    DWORD PTR ds:0x4030f8
  402c8d:	ff 25 ec 30 40 00    	jmp    DWORD PTR ds:0x4030ec
  402c93:	ff 25 00 31 40 00    	jmp    DWORD PTR ds:0x403100
  402c99:	ff 25 d4 30 40 00    	jmp    DWORD PTR ds:0x4030d4
  402c9f:	ff 25 cc 30 40 00    	jmp    DWORD PTR ds:0x4030cc
  402ca5:	ff 25 40 31 40 00    	jmp    DWORD PTR ds:0x403140
  402cab:	ff 25 e8 30 40 00    	jmp    DWORD PTR ds:0x4030e8
  402cb1:	ff 25 c0 30 40 00    	jmp    DWORD PTR ds:0x4030c0
  402cb7:	ff 25 f0 30 40 00    	jmp    DWORD PTR ds:0x4030f0
  402cbd:	55                   	push   ebp
  402cbe:	8b ec                	mov    ebp,esp
  402cc0:	51                   	push   ecx
  402cc1:	83 3d 14 54 40 00 01 	cmp    DWORD PTR ds:0x405414,0x1
  402cc8:	7c 66                	jl     0x402d30
  402cca:	81 7d 08 b4 02 00 c0 	cmp    DWORD PTR [ebp+0x8],0xc00002b4
  402cd1:	74 09                	je     0x402cdc
  402cd3:	81 7d 08 b5 02 00 c0 	cmp    DWORD PTR [ebp+0x8],0xc00002b5
  402cda:	75 54                	jne    0x402d30
  402cdc:	0f ae 5d fc          	stmxcsr DWORD PTR [ebp-0x4]
  402ce0:	8b 45 fc             	mov    eax,DWORD PTR [ebp-0x4]
  402ce3:	83 f0 3f             	xor    eax,0x3f
  402ce6:	a8 81                	test   al,0x81
  402ce8:	74 3f                	je     0x402d29
  402cea:	a9 04 02 00 00       	test   eax,0x204
  402cef:	75 07                	jne    0x402cf8
  402cf1:	b8 8e 00 00 c0       	mov    eax,0xc000008e
  402cf6:	c9                   	leave
  402cf7:	c3                   	ret
  402cf8:	a9 02 01 00 00       	test   eax,0x102
  402cfd:	74 2a                	je     0x402d29
  402cff:	a9 08 04 00 00       	test   eax,0x408
  402d04:	75 07                	jne    0x402d0d
  402d06:	b8 91 00 00 c0       	mov    eax,0xc0000091
  402d0b:	c9                   	leave
  402d0c:	c3                   	ret
  402d0d:	a9 10 08 00 00       	test   eax,0x810
  402d12:	75 07                	jne    0x402d1b
  402d14:	b8 93 00 00 c0       	mov    eax,0xc0000093
  402d19:	c9                   	leave
  402d1a:	c3                   	ret
  402d1b:	a9 20 10 00 00       	test   eax,0x1020
  402d20:	75 0e                	jne    0x402d30
  402d22:	b8 8f 00 00 c0       	mov    eax,0xc000008f
  402d27:	c9                   	leave
  402d28:	c3                   	ret
  402d29:	b8 90 00 00 c0       	mov    eax,0xc0000090
  402d2e:	c9                   	leave
  402d2f:	c3                   	ret
  402d30:	8b 45 08             	mov    eax,DWORD PTR [ebp+0x8]
  402d33:	c9                   	leave
  402d34:	c3                   	ret
  402d35:	cc                   	int3
  402d36:	cc                   	int3
  402d37:	cc                   	int3
  402d38:	cc                   	int3
  402d39:	cc                   	int3
  402d3a:	cc                   	int3
  402d3b:	cc                   	int3
  402d3c:	cc                   	int3
  402d3d:	cc                   	int3
  402d3e:	cc                   	int3
  402d3f:	cc                   	int3
  402d40:	83 3d 14 54 40 00 06 	cmp    DWORD PTR ds:0x405414,0x6
  402d47:	7c 11                	jl     0x402d5a
  402d49:	c5 f9 6e c1          	vmovd  xmm0,ecx
  402d4d:	c4 e3 79 22 c2 01    	vpinsrd xmm0,xmm0,edx,0x1
  402d53:	62 f1 fe 08 e6 c0    	vcvtqq2pd xmm0,xmm0
  402d59:	c3                   	ret
  402d5a:	0f 57 c9             	xorps  xmm1,xmm1
  402d5d:	f2 0f 2a ca          	cvtsi2sd xmm1,edx
  402d61:	0f 57 c0             	xorps  xmm0,xmm0
  402d64:	f2 0f 2a c1          	cvtsi2sd xmm0,ecx
  402d68:	c1 e9 1f             	shr    ecx,0x1f
  402d6b:	f2 0f 59 0d c0 32 40 	mulsd  xmm1,QWORD PTR ds:0x4032c0
  402d72:	00 
  402d73:	f2 0f 58 04 cd b8 32 	addsd  xmm0,QWORD PTR [ecx*8+0x4032b8]
  402d7a:	40 00 
  402d7c:	f2 0f 58 c1          	addsd  xmm0,xmm1
  402d80:	c3                   	ret
  402d81:	ff 25 a0 30 40 00    	jmp    DWORD PTR ds:0x4030a0
  402d87:	ff 25 e0 30 40 00    	jmp    DWORD PTR ds:0x4030e0
  402d8d:	cc                   	int3
  402d8e:	cc                   	int3
  402d8f:	cc                   	int3
  402d90:	8d 4d ec             	lea    ecx,[ebp-0x14]
  402d93:	ff 25 8c 30 40 00    	jmp    DWORD PTR ds:0x40308c
  402d99:	8d 4d e8             	lea    ecx,[ebp-0x18]
  402d9c:	e9 ef ef ff ff       	jmp    0x401d90
  402da1:	cc                   	int3
  402da2:	cc                   	int3
  402da3:	cc                   	int3
  402da4:	cc                   	int3
  402da5:	cc                   	int3
  402da6:	90                   	nop
  402da7:	90                   	nop
  402da8:	8b 54 24 08          	mov    edx,DWORD PTR [esp+0x8]
  402dac:	8d 42 0c             	lea    eax,[edx+0xc]
  402daf:	8b 4a e0             	mov    ecx,DWORD PTR [edx-0x20]
  402db2:	33 c8                	xor    ecx,eax
  402db4:	e8 2b f2 ff ff       	call   0x401fe4
  402db9:	8b 4a fc             	mov    ecx,DWORD PTR [edx-0x4]
  402dbc:	33 c8                	xor    ecx,eax
  402dbe:	e8 21 f2 ff ff       	call   0x401fe4
  402dc3:	b8 f8 38 40 00       	mov    eax,0x4038f8
  402dc8:	e9 24 fe ff ff       	jmp    0x402bf1
  402dcd:	cc                   	int3
  402dce:	cc                   	int3
  402dcf:	cc                   	int3
  402dd0:	8d 4d d0             	lea    ecx,[ebp-0x30]
  402dd3:	e9 f8 ee ff ff       	jmp    0x401cd0
  402dd8:	8d 4d d0             	lea    ecx,[ebp-0x30]
  402ddb:	e9 40 ef ff ff       	jmp    0x401d20
  402de0:	cc                   	int3
  402de1:	cc                   	int3
  402de2:	cc                   	int3
  402de3:	cc                   	int3
  402de4:	cc                   	int3
  402de5:	90                   	nop
  402de6:	90                   	nop
  402de7:	8b 54 24 08          	mov    edx,DWORD PTR [esp+0x8]
  402deb:	8d 42 0c             	lea    eax,[edx+0xc]
  402dee:	8b 4a cc             	mov    ecx,DWORD PTR [edx-0x34]
  402df1:	33 c8                	xor    ecx,eax
  402df3:	e8 ec f1 ff ff       	call   0x401fe4
  402df8:	b8 2c 39 40 00       	mov    eax,0x40392c
  402dfd:	e9 ef fd ff ff       	jmp    0x402bf1
  402e02:	cc                   	int3
  402e03:	cc                   	int3
  402e04:	cc                   	int3
  402e05:	cc                   	int3
  402e06:	cc                   	int3
  402e07:	cc                   	int3
  402e08:	cc                   	int3
  402e09:	cc                   	int3
  402e0a:	cc                   	int3
  402e0b:	cc                   	int3
  402e0c:	cc                   	int3
  402e0d:	cc                   	int3
  402e0e:	cc                   	int3
  402e0f:	cc                   	int3
  402e10:	90                   	nop
  402e11:	90                   	nop
  402e12:	8b 54 24 08          	mov    edx,DWORD PTR [esp+0x8]
  402e16:	8d 42 0c             	lea    eax,[edx+0xc]
  402e19:	8b 4a fc             	mov    ecx,DWORD PTR [edx-0x4]
  402e1c:	33 c8                	xor    ecx,eax
  402e1e:	e8 c1 f1 ff ff       	call   0x401fe4
  402e23:	b8 a4 39 40 00       	mov    eax,0x4039a4
  402e28:	e9 c4 fd ff ff       	jmp    0x402bf1
  402e2d:	cc                   	int3
  402e2e:	cc                   	int3
  402e2f:	cc                   	int3
  402e30:	90                   	nop
  402e31:	90                   	nop
  402e32:	8b 54 24 08          	mov    edx,DWORD PTR [esp+0x8]
  402e36:	8d 42 0c             	lea    eax,[edx+0xc]
  402e39:	8b 4a fc             	mov    ecx,DWORD PTR [edx-0x4]
  402e3c:	33 c8                	xor    ecx,eax
  402e3e:	e8 a1 f1 ff ff       	call   0x401fe4
  402e43:	b8 d0 39 40 00       	mov    eax,0x4039d0
  402e48:	e9 a4 fd ff ff       	jmp    0x402bf1
  402e4d:	cc                   	int3
  402e4e:	cc                   	int3
  402e4f:	cc                   	int3
  402e50:	90                   	nop
  402e51:	90                   	nop
  402e52:	8b 54 24 08          	mov    edx,DWORD PTR [esp+0x8]
  402e56:	8d 42 0c             	lea    eax,[edx+0xc]
  402e59:	8b 4a f8             	mov    ecx,DWORD PTR [edx-0x8]
  402e5c:	33 c8                	xor    ecx,eax
  402e5e:	e8 81 f1 ff ff       	call   0x401fe4
  402e63:	b8 a4 39 40 00       	mov    eax,0x4039a4
  402e68:	e9 84 fd ff ff       	jmp    0x402bf1
  402e6d:	cc                   	int3
  402e6e:	cc                   	int3
  402e6f:	cc                   	int3
  402e70:	8d 4d d8             	lea    ecx,[ebp-0x28]
  402e73:	e9 58 ee ff ff       	jmp    0x401cd0
  402e78:	8d 4d d8             	lea    ecx,[ebp-0x28]
  402e7b:	e9 f0 ed ff ff       	jmp    0x401c70
  402e80:	8d 4d d0             	lea    ecx,[ebp-0x30]
  402e83:	e9 88 e3 ff ff       	jmp    0x401210
  402e88:	cc                   	int3
  402e89:	cc                   	int3
  402e8a:	cc                   	int3
  402e8b:	cc                   	int3
  402e8c:	cc                   	int3
  402e8d:	90                   	nop
  402e8e:	90                   	nop
  402e8f:	8b 54 24 08          	mov    edx,DWORD PTR [esp+0x8]
  402e93:	8d 42 0c             	lea    eax,[edx+0xc]
  402e96:	8b 4a cc             	mov    ecx,DWORD PTR [edx-0x34]
  402e99:	33 c8                	xor    ecx,eax
  402e9b:	e8 44 f1 ff ff       	call   0x401fe4
  402ea0:	b8 f4 39 40 00       	mov    eax,0x4039f4
  402ea5:	e9 47 fd ff ff       	jmp    0x402bf1
  402eaa:	cc                   	int3
  402eab:	cc                   	int3
  402eac:	cc                   	int3
  402ead:	cc                   	int3
  402eae:	cc                   	int3
  402eaf:	cc                   	int3
  402eb0:	8b 0d 2c 50 40 00    	mov    ecx,DWORD PTR ds:0x40502c
  402eb6:	83 f9 10             	cmp    ecx,0x10
  402eb9:	72 2a                	jb     0x402ee5
  402ebb:	a1 18 50 40 00       	mov    eax,ds:0x405018
  402ec0:	41                   	inc    ecx
  402ec1:	81 f9 00 10 00 00    	cmp    ecx,0x1000
  402ec7:	72 12                	jb     0x402edb
  402ec9:	8b 50 fc             	mov    edx,DWORD PTR [eax-0x4]
  402ecc:	83 c1 23             	add    ecx,0x23
  402ecf:	2b c2                	sub    eax,edx
  402ed1:	83 c0 fc             	add    eax,0xfffffffc
  402ed4:	83 f8 1f             	cmp    eax,0x1f
  402ed7:	77 28                	ja     0x402f01
  402ed9:	8b c2                	mov    eax,edx
  402edb:	51                   	push   ecx
  402edc:	50                   	push   eax
  402edd:	e8 94 f3 ff ff       	call   0x402276
  402ee2:	83 c4 08             	add    esp,0x8
  402ee5:	c7 05 28 50 40 00 00 	mov    DWORD PTR ds:0x405028,0x0
  402eec:	00 00 00 
  402eef:	c7 05 2c 50 40 00 0f 	mov    DWORD PTR ds:0x40502c,0xf
  402ef6:	00 00 00 
  402ef9:	c6 05 18 50 40 00 00 	mov    BYTE PTR ds:0x405018,0x0
  402f00:	c3                   	ret
  402f01:	ff 25 f4 30 40 00    	jmp    DWORD PTR ds:0x4030f4
  402f07:	b9 cc 50 40 00       	mov    ecx,0x4050cc
  402f0c:	e9 80 f0 ff ff       	jmp    0x401f91
