
CrackMe#3_By_7T7.exe:     file format pei-i386


Disassembly of section .text:

00401000 <.text>:
  401000:	55                   	push   ebp
  401001:	89 e5                	mov    ebp,esp
  401003:	81 ec a0 07 00 00    	sub    esp,0x7a0
  401009:	90                   	nop
  40100a:	8d 85 a4 fb ff ff    	lea    eax,[ebp-0x45c]
  401010:	50                   	push   eax
  401011:	e8 82 07 00 00       	call   0x401798
  401016:	b8 00 20 40 00       	mov    eax,0x402000
  40101b:	50                   	push   eax
  40101c:	e8 7f 07 00 00       	call   0x4017a0
  401021:	83 c4 04             	add    esp,0x4
  401024:	b8 58 20 40 00       	mov    eax,0x402058
  401029:	50                   	push   eax
  40102a:	e8 71 07 00 00       	call   0x4017a0
  40102f:	83 c4 04             	add    esp,0x4
  401032:	b8 af 20 40 00       	mov    eax,0x4020af
  401037:	50                   	push   eax
  401038:	e8 63 07 00 00       	call   0x4017a0
  40103d:	83 c4 04             	add    esp,0x4
  401040:	b8 05 21 40 00       	mov    eax,0x402105
  401045:	50                   	push   eax
  401046:	e8 55 07 00 00       	call   0x4017a0
  40104b:	83 c4 04             	add    esp,0x4
  40104e:	b8 5a 21 40 00       	mov    eax,0x40215a
  401053:	50                   	push   eax
  401054:	e8 47 07 00 00       	call   0x4017a0
  401059:	83 c4 04             	add    esp,0x4
  40105c:	b8 ae 21 40 00       	mov    eax,0x4021ae
  401061:	50                   	push   eax
  401062:	e8 39 07 00 00       	call   0x4017a0
  401067:	83 c4 04             	add    esp,0x4
  40106a:	b8 01 22 40 00       	mov    eax,0x402201
  40106f:	50                   	push   eax
  401070:	e8 2b 07 00 00       	call   0x4017a0
  401075:	83 c4 04             	add    esp,0x4
  401078:	b8 53 22 40 00       	mov    eax,0x402253
  40107d:	50                   	push   eax
  40107e:	e8 1d 07 00 00       	call   0x4017a0
  401083:	83 c4 04             	add    esp,0x4
  401086:	b8 a4 22 40 00       	mov    eax,0x4022a4
  40108b:	50                   	push   eax
  40108c:	e8 0f 07 00 00       	call   0x4017a0
  401091:	83 c4 04             	add    esp,0x4
  401094:	b8 f4 22 40 00       	mov    eax,0x4022f4
  401099:	50                   	push   eax
  40109a:	e8 01 07 00 00       	call   0x4017a0
  40109f:	83 c4 04             	add    esp,0x4
  4010a2:	b8 43 23 40 00       	mov    eax,0x402343
  4010a7:	50                   	push   eax
  4010a8:	e8 f3 06 00 00       	call   0x4017a0
  4010ad:	83 c4 04             	add    esp,0x4
  4010b0:	b8 91 23 40 00       	mov    eax,0x402391
  4010b5:	50                   	push   eax
  4010b6:	e8 e5 06 00 00       	call   0x4017a0
  4010bb:	83 c4 04             	add    esp,0x4
  4010be:	b8 de 23 40 00       	mov    eax,0x4023de
  4010c3:	50                   	push   eax
  4010c4:	e8 d7 06 00 00       	call   0x4017a0
  4010c9:	83 c4 04             	add    esp,0x4
  4010cc:	b8 2a 24 40 00       	mov    eax,0x40242a
  4010d1:	50                   	push   eax
  4010d2:	e8 c9 06 00 00       	call   0x4017a0
  4010d7:	83 c4 04             	add    esp,0x4
  4010da:	b8 75 24 40 00       	mov    eax,0x402475
  4010df:	50                   	push   eax
  4010e0:	e8 bb 06 00 00       	call   0x4017a0
  4010e5:	83 c4 04             	add    esp,0x4
  4010e8:	b8 cb 24 40 00       	mov    eax,0x4024cb
  4010ed:	50                   	push   eax
  4010ee:	e8 ad 06 00 00       	call   0x4017a0
  4010f3:	83 c4 04             	add    esp,0x4
  4010f6:	b8 eb 24 40 00       	mov    eax,0x4024eb
  4010fb:	50                   	push   eax
  4010fc:	e8 9f 06 00 00       	call   0x4017a0
  401101:	83 c4 04             	add    esp,0x4
  401104:	b8 1f 25 40 00       	mov    eax,0x40251f
  401109:	50                   	push   eax
  40110a:	e8 91 06 00 00       	call   0x4017a0
  40110f:	83 c4 04             	add    esp,0x4
  401112:	e8 91 06 00 00       	call   0x4017a8
  401117:	83 f8 00             	cmp    eax,0x0
  40111a:	0f 84 1d 00 00 00    	je     0x40113d
  401120:	b8 4c 25 40 00       	mov    eax,0x40254c
  401125:	50                   	push   eax
  401126:	e8 75 06 00 00       	call   0x4017a0
  40112b:	83 c4 04             	add    esp,0x4
  40112e:	b8 00 00 00 00       	mov    eax,0x0
  401133:	e9 aa 04 00 00       	jmp    0x4015e2
  401138:	e9 a0 04 00 00       	jmp    0x4015dd
  40113d:	0f b6 85 a6 fb ff ff 	movzx  eax,BYTE PTR [ebp-0x45a]
  401144:	83 f8 64             	cmp    eax,0x64
  401147:	0f 84 1d 00 00 00    	je     0x40116a
  40114d:	b8 6c 25 40 00       	mov    eax,0x40256c
  401152:	50                   	push   eax
  401153:	e8 48 06 00 00       	call   0x4017a0
  401158:	83 c4 04             	add    esp,0x4
  40115b:	b8 00 00 00 00       	mov    eax,0x0
  401160:	e9 7d 04 00 00       	jmp    0x4015e2
  401165:	e9 73 04 00 00       	jmp    0x4015dd
  40116a:	b8 90 25 40 00       	mov    eax,0x402590
  40116f:	50                   	push   eax
  401170:	e8 2b 06 00 00       	call   0x4017a0
  401175:	83 c4 04             	add    esp,0x4
  401178:	8b 05 cc 26 40 00    	mov    eax,DWORD PTR ds:0x4026cc
  40117e:	50                   	push   eax
  40117f:	b8 64 00 00 00       	mov    eax,0x64
  401184:	50                   	push   eax
  401185:	8d 45 9c             	lea    eax,[ebp-0x64]
  401188:	50                   	push   eax
  401189:	e8 22 06 00 00       	call   0x4017b0
  40118e:	83 c4 0c             	add    esp,0xc
  401191:	8d 45 9c             	lea    eax,[ebp-0x64]
  401194:	50                   	push   eax
  401195:	e8 1e 06 00 00       	call   0x4017b8
  40119a:	83 c4 04             	add    esp,0x4
  40119d:	48                   	dec    eax
  40119e:	89 45 98             	mov    DWORD PTR [ebp-0x68],eax
  4011a1:	b8 00 00 00 00       	mov    eax,0x0
  4011a6:	89 85 a0 fb ff ff    	mov    DWORD PTR [ebp-0x460],eax
  4011ac:	8b 85 a0 fb ff ff    	mov    eax,DWORD PTR [ebp-0x460]
  4011b2:	8b 4d 98             	mov    ecx,DWORD PTR [ebp-0x68]
  4011b5:	39 c8                	cmp    eax,ecx
  4011b7:	0f 8d 8e 00 00 00    	jge    0x40124b
  4011bd:	e9 11 00 00 00       	jmp    0x4011d3
  4011c2:	8b 85 a0 fb ff ff    	mov    eax,DWORD PTR [ebp-0x460]
  4011c8:	89 c1                	mov    ecx,eax
  4011ca:	40                   	inc    eax
  4011cb:	89 85 a0 fb ff ff    	mov    DWORD PTR [ebp-0x460],eax
  4011d1:	eb d9                	jmp    0x4011ac
  4011d3:	8b 85 a0 fb ff ff    	mov    eax,DWORD PTR [ebp-0x460]
  4011d9:	c1 e0 02             	shl    eax,0x2
  4011dc:	8d 8d 08 fe ff ff    	lea    ecx,[ebp-0x1f8]
  4011e2:	01 c1                	add    ecx,eax
  4011e4:	8b 85 a0 fb ff ff    	mov    eax,DWORD PTR [ebp-0x460]
  4011ea:	8d 55 9c             	lea    edx,[ebp-0x64]
  4011ed:	01 c2                	add    edx,eax
  4011ef:	0f be 02             	movsx  eax,BYTE PTR [edx]
  4011f2:	89 01                	mov    DWORD PTR [ecx],eax
  4011f4:	8b 85 a0 fb ff ff    	mov    eax,DWORD PTR [ebp-0x460]
  4011fa:	c1 e0 02             	shl    eax,0x2
  4011fd:	8d 8d 78 fc ff ff    	lea    ecx,[ebp-0x388]
  401203:	01 c1                	add    ecx,eax
  401205:	8b 85 a0 fb ff ff    	mov    eax,DWORD PTR [ebp-0x460]
  40120b:	c1 e0 02             	shl    eax,0x2
  40120e:	8d 95 08 fe ff ff    	lea    edx,[ebp-0x1f8]
  401214:	01 c2                	add    edx,eax
  401216:	8b 02                	mov    eax,DWORD PTR [edx]
  401218:	8b 55 98             	mov    edx,DWORD PTR [ebp-0x68]
  40121b:	31 d0                	xor    eax,edx
  40121d:	8b 55 98             	mov    edx,DWORD PTR [ebp-0x68]
  401220:	0f af c2             	imul   eax,edx
  401223:	8b 95 a0 fb ff ff    	mov    edx,DWORD PTR [ebp-0x460]
  401229:	c1 e2 02             	shl    edx,0x2
  40122c:	89 8d 9c fb ff ff    	mov    DWORD PTR [ebp-0x464],ecx
  401232:	8d 8d 08 fe ff ff    	lea    ecx,[ebp-0x1f8]
  401238:	01 d1                	add    ecx,edx
  40123a:	8b 11                	mov    edx,DWORD PTR [ecx]
  40123c:	31 d0                	xor    eax,edx
  40123e:	8b 8d 9c fb ff ff    	mov    ecx,DWORD PTR [ebp-0x464]
  401244:	89 01                	mov    DWORD PTR [ecx],eax
  401246:	e9 77 ff ff ff       	jmp    0x4011c2
  40124b:	b8 00 00 00 00       	mov    eax,0x0
  401250:	89 85 98 fb ff ff    	mov    DWORD PTR [ebp-0x468],eax
  401256:	8b 85 98 fb ff ff    	mov    eax,DWORD PTR [ebp-0x468]
  40125c:	8b 4d 98             	mov    ecx,DWORD PTR [ebp-0x68]
  40125f:	39 c8                	cmp    eax,ecx
  401261:	0f 8d 41 00 00 00    	jge    0x4012a8
  401267:	e9 11 00 00 00       	jmp    0x40127d
  40126c:	8b 85 98 fb ff ff    	mov    eax,DWORD PTR [ebp-0x468]
  401272:	89 c1                	mov    ecx,eax
  401274:	40                   	inc    eax
  401275:	89 85 98 fb ff ff    	mov    DWORD PTR [ebp-0x468],eax
  40127b:	eb d9                	jmp    0x401256
  40127d:	8b 85 98 fb ff ff    	mov    eax,DWORD PTR [ebp-0x468]
  401283:	8d 8d b0 fb ff ff    	lea    ecx,[ebp-0x450]
  401289:	01 c1                	add    ecx,eax
  40128b:	8b 85 98 fb ff ff    	mov    eax,DWORD PTR [ebp-0x468]
  401291:	c1 e0 02             	shl    eax,0x2
  401294:	8d 95 78 fc ff ff    	lea    edx,[ebp-0x388]
  40129a:	01 c2                	add    edx,eax
  40129c:	8b 02                	mov    eax,DWORD PTR [edx]
  40129e:	c1 e0 18             	shl    eax,0x18
  4012a1:	c1 f8 18             	sar    eax,0x18
  4012a4:	88 01                	mov    BYTE PTR [ecx],al
  4012a6:	eb c4                	jmp    0x40126c
  4012a8:	8b 45 98             	mov    eax,DWORD PTR [ebp-0x68]
  4012ab:	8d 8d b0 fb ff ff    	lea    ecx,[ebp-0x450]
  4012b1:	01 c1                	add    ecx,eax
  4012b3:	b8 00 00 00 00       	mov    eax,0x0
  4012b8:	88 01                	mov    BYTE PTR [ecx],al
  4012ba:	e8 e9 04 00 00       	call   0x4017a8
  4012bf:	83 f8 00             	cmp    eax,0x0
  4012c2:	0f 84 18 00 00 00    	je     0x4012e0
  4012c8:	b8 a6 25 40 00       	mov    eax,0x4025a6
  4012cd:	50                   	push   eax
  4012ce:	e8 cd 04 00 00       	call   0x4017a0
  4012d3:	83 c4 04             	add    esp,0x4
  4012d6:	b8 00 00 00 00       	mov    eax,0x0
  4012db:	e9 02 03 00 00       	jmp    0x4015e2
  4012e0:	0f b6 85 a6 fb ff ff 	movzx  eax,BYTE PTR [ebp-0x45a]
  4012e7:	83 f8 64             	cmp    eax,0x64
  4012ea:	0f 84 18 00 00 00    	je     0x401308
  4012f0:	b8 c6 25 40 00       	mov    eax,0x4025c6
  4012f5:	50                   	push   eax
  4012f6:	e8 a5 04 00 00       	call   0x4017a0
  4012fb:	83 c4 04             	add    esp,0x4
  4012fe:	b8 00 00 00 00       	mov    eax,0x0
  401303:	e9 da 02 00 00       	jmp    0x4015e2
  401308:	b8 00 00 00 00       	mov    eax,0x0
  40130d:	89 85 cc fa ff ff    	mov    DWORD PTR [ebp-0x534],eax
  401313:	8b 85 cc fa ff ff    	mov    eax,DWORD PTR [ebp-0x534]
  401319:	8b 4d 98             	mov    ecx,DWORD PTR [ebp-0x68]
  40131c:	39 c8                	cmp    eax,ecx
  40131e:	0f 8d ff 00 00 00    	jge    0x401423
  401324:	e9 11 00 00 00       	jmp    0x40133a
  401329:	8b 85 cc fa ff ff    	mov    eax,DWORD PTR [ebp-0x534]
  40132f:	89 c1                	mov    ecx,eax
  401331:	40                   	inc    eax
  401332:	89 85 cc fa ff ff    	mov    DWORD PTR [ebp-0x534],eax
  401338:	eb d9                	jmp    0x401313
  40133a:	8b 85 cc fa ff ff    	mov    eax,DWORD PTR [ebp-0x534]
  401340:	b9 03 00 00 00       	mov    ecx,0x3
  401345:	0f af c1             	imul   eax,ecx
  401348:	8d 8d d0 fa ff ff    	lea    ecx,[ebp-0x530]
  40134e:	01 c1                	add    ecx,eax
  401350:	8b 85 cc fa ff ff    	mov    eax,DWORD PTR [ebp-0x534]
  401356:	c1 e0 02             	shl    eax,0x2
  401359:	8d 95 78 fc ff ff    	lea    edx,[ebp-0x388]
  40135f:	01 c2                	add    edx,eax
  401361:	8b 02                	mov    eax,DWORD PTR [edx]
  401363:	89 8d c8 fa ff ff    	mov    DWORD PTR [ebp-0x538],ecx
  401369:	b9 64 00 00 00       	mov    ecx,0x64
  40136e:	99                   	cdq
  40136f:	f7 f9                	idiv   ecx
  401371:	83 c0 30             	add    eax,0x30
  401374:	c1 e0 18             	shl    eax,0x18
  401377:	c1 f8 18             	sar    eax,0x18
  40137a:	8b 8d c8 fa ff ff    	mov    ecx,DWORD PTR [ebp-0x538]
  401380:	88 01                	mov    BYTE PTR [ecx],al
  401382:	8b 85 cc fa ff ff    	mov    eax,DWORD PTR [ebp-0x534]
  401388:	b9 03 00 00 00       	mov    ecx,0x3
  40138d:	0f af c1             	imul   eax,ecx
  401390:	40                   	inc    eax
  401391:	8d 8d d0 fa ff ff    	lea    ecx,[ebp-0x530]
  401397:	01 c1                	add    ecx,eax
  401399:	8b 85 cc fa ff ff    	mov    eax,DWORD PTR [ebp-0x534]
  40139f:	c1 e0 02             	shl    eax,0x2
  4013a2:	8d 95 78 fc ff ff    	lea    edx,[ebp-0x388]
  4013a8:	01 c2                	add    edx,eax
  4013aa:	8b 02                	mov    eax,DWORD PTR [edx]
  4013ac:	89 8d c4 fa ff ff    	mov    DWORD PTR [ebp-0x53c],ecx
  4013b2:	b9 0a 00 00 00       	mov    ecx,0xa
  4013b7:	99                   	cdq
  4013b8:	f7 f9                	idiv   ecx
  4013ba:	b9 0a 00 00 00       	mov    ecx,0xa
  4013bf:	99                   	cdq
  4013c0:	f7 f9                	idiv   ecx
  4013c2:	83 c2 30             	add    edx,0x30
  4013c5:	c1 e2 18             	shl    edx,0x18
  4013c8:	c1 fa 18             	sar    edx,0x18
  4013cb:	8b 85 c4 fa ff ff    	mov    eax,DWORD PTR [ebp-0x53c]
  4013d1:	88 10                	mov    BYTE PTR [eax],dl
  4013d3:	8b 85 cc fa ff ff    	mov    eax,DWORD PTR [ebp-0x534]
  4013d9:	b9 03 00 00 00       	mov    ecx,0x3
  4013de:	0f af c1             	imul   eax,ecx
  4013e1:	83 c0 02             	add    eax,0x2
  4013e4:	8d 8d d0 fa ff ff    	lea    ecx,[ebp-0x530]
  4013ea:	01 c1                	add    ecx,eax
  4013ec:	8b 85 cc fa ff ff    	mov    eax,DWORD PTR [ebp-0x534]
  4013f2:	c1 e0 02             	shl    eax,0x2
  4013f5:	8d 95 78 fc ff ff    	lea    edx,[ebp-0x388]
  4013fb:	01 c2                	add    edx,eax
  4013fd:	8b 02                	mov    eax,DWORD PTR [edx]
  4013ff:	89 8d c0 fa ff ff    	mov    DWORD PTR [ebp-0x540],ecx
  401405:	b9 0a 00 00 00       	mov    ecx,0xa
  40140a:	99                   	cdq
  40140b:	f7 f9                	idiv   ecx
  40140d:	83 c2 30             	add    edx,0x30
  401410:	c1 e2 18             	shl    edx,0x18
  401413:	c1 fa 18             	sar    edx,0x18
  401416:	8b 85 c0 fa ff ff    	mov    eax,DWORD PTR [ebp-0x540]
  40141c:	88 10                	mov    BYTE PTR [eax],dl
  40141e:	e9 06 ff ff ff       	jmp    0x401329
  401423:	8b 45 98             	mov    eax,DWORD PTR [ebp-0x68]
  401426:	b9 03 00 00 00       	mov    ecx,0x3
  40142b:	0f af c1             	imul   eax,ecx
  40142e:	8d 8d d0 fa ff ff    	lea    ecx,[ebp-0x530]
  401434:	01 c1                	add    ecx,eax
  401436:	b8 00 00 00 00       	mov    eax,0x0
  40143b:	88 01                	mov    BYTE PTR [ecx],al
  40143d:	b8 ea 25 40 00       	mov    eax,0x4025ea
  401442:	50                   	push   eax
  401443:	e8 58 03 00 00       	call   0x4017a0
  401448:	83 c4 04             	add    esp,0x4
  40144b:	8b 05 cc 26 40 00    	mov    eax,DWORD PTR ds:0x4026cc
  401451:	50                   	push   eax
  401452:	b8 c8 00 00 00       	mov    eax,0xc8
  401457:	50                   	push   eax
  401458:	8d 85 f8 f9 ff ff    	lea    eax,[ebp-0x608]
  40145e:	50                   	push   eax
  40145f:	e8 4c 03 00 00       	call   0x4017b0
  401464:	83 c4 0c             	add    esp,0xc
  401467:	8d 85 f8 f9 ff ff    	lea    eax,[ebp-0x608]
  40146d:	50                   	push   eax
  40146e:	e8 45 03 00 00       	call   0x4017b8
  401473:	83 c4 04             	add    esp,0x4
  401476:	48                   	dec    eax
  401477:	8d 8d f8 f9 ff ff    	lea    ecx,[ebp-0x608]
  40147d:	01 c1                	add    ecx,eax
  40147f:	b8 00 00 00 00       	mov    eax,0x0
  401484:	88 01                	mov    BYTE PTR [ecx],al
  401486:	b8 00 00 00 00       	mov    eax,0x0
  40148b:	89 85 64 f8 ff ff    	mov    DWORD PTR [ebp-0x79c],eax
  401491:	8b 85 64 f8 ff ff    	mov    eax,DWORD PTR [ebp-0x79c]
  401497:	8b 4d 98             	mov    ecx,DWORD PTR [ebp-0x68]
  40149a:	39 c8                	cmp    eax,ecx
  40149c:	0f 8d a6 00 00 00    	jge    0x401548
  4014a2:	e9 11 00 00 00       	jmp    0x4014b8
  4014a7:	8b 85 64 f8 ff ff    	mov    eax,DWORD PTR [ebp-0x79c]
  4014ad:	89 c1                	mov    ecx,eax
  4014af:	40                   	inc    eax
  4014b0:	89 85 64 f8 ff ff    	mov    DWORD PTR [ebp-0x79c],eax
  4014b6:	eb d9                	jmp    0x401491
  4014b8:	8b 85 64 f8 ff ff    	mov    eax,DWORD PTR [ebp-0x79c]
  4014be:	c1 e0 02             	shl    eax,0x2
  4014c1:	8d 8d 68 f8 ff ff    	lea    ecx,[ebp-0x798]
  4014c7:	01 c1                	add    ecx,eax
  4014c9:	8b 85 64 f8 ff ff    	mov    eax,DWORD PTR [ebp-0x79c]
  4014cf:	ba 03 00 00 00       	mov    edx,0x3
  4014d4:	0f af c2             	imul   eax,edx
  4014d7:	8d 95 f8 f9 ff ff    	lea    edx,[ebp-0x608]
  4014dd:	01 c2                	add    edx,eax
  4014df:	0f be 02             	movsx  eax,BYTE PTR [edx]
  4014e2:	83 e8 30             	sub    eax,0x30
  4014e5:	ba 64 00 00 00       	mov    edx,0x64
  4014ea:	0f af c2             	imul   eax,edx
  4014ed:	8b 95 64 f8 ff ff    	mov    edx,DWORD PTR [ebp-0x79c]
  4014f3:	89 8d 60 f8 ff ff    	mov    DWORD PTR [ebp-0x7a0],ecx
  4014f9:	b9 03 00 00 00       	mov    ecx,0x3
  4014fe:	0f af d1             	imul   edx,ecx
  401501:	42                   	inc    edx
  401502:	8d 8d f8 f9 ff ff    	lea    ecx,[ebp-0x608]
  401508:	01 d1                	add    ecx,edx
  40150a:	0f be 11             	movsx  edx,BYTE PTR [ecx]
  40150d:	83 ea 30             	sub    edx,0x30
  401510:	b9 0a 00 00 00       	mov    ecx,0xa
  401515:	0f af d1             	imul   edx,ecx
  401518:	01 d0                	add    eax,edx
  40151a:	8b 8d 64 f8 ff ff    	mov    ecx,DWORD PTR [ebp-0x79c]
  401520:	ba 03 00 00 00       	mov    edx,0x3
  401525:	0f af ca             	imul   ecx,edx
  401528:	83 c1 02             	add    ecx,0x2
  40152b:	8d 95 f8 f9 ff ff    	lea    edx,[ebp-0x608]
  401531:	01 ca                	add    edx,ecx
  401533:	0f be 0a             	movsx  ecx,BYTE PTR [edx]
  401536:	83 e9 30             	sub    ecx,0x30
  401539:	01 c8                	add    eax,ecx
  40153b:	8b 8d 60 f8 ff ff    	mov    ecx,DWORD PTR [ebp-0x7a0]
  401541:	89 01                	mov    DWORD PTR [ecx],eax
  401543:	e9 5f ff ff ff       	jmp    0x4014a7
  401548:	e8 5b 02 00 00       	call   0x4017a8
  40154d:	83 f8 00             	cmp    eax,0x0
  401550:	0f 84 18 00 00 00    	je     0x40156e
  401556:	b8 01 26 40 00       	mov    eax,0x402601
  40155b:	50                   	push   eax
  40155c:	e8 3f 02 00 00       	call   0x4017a0
  401561:	83 c4 04             	add    esp,0x4
  401564:	b8 00 00 00 00       	mov    eax,0x0
  401569:	e9 74 00 00 00       	jmp    0x4015e2
  40156e:	0f b6 85 a6 fb ff ff 	movzx  eax,BYTE PTR [ebp-0x45a]
  401575:	83 f8 64             	cmp    eax,0x64
  401578:	0f 84 18 00 00 00    	je     0x401596
  40157e:	b8 21 26 40 00       	mov    eax,0x402621
  401583:	50                   	push   eax
  401584:	e8 17 02 00 00       	call   0x4017a0
  401589:	83 c4 04             	add    esp,0x4
  40158c:	b8 00 00 00 00       	mov    eax,0x0
  401591:	e9 4c 00 00 00       	jmp    0x4015e2
  401596:	8b 45 98             	mov    eax,DWORD PTR [ebp-0x68]
  401599:	c1 e0 02             	shl    eax,0x2
  40159c:	50                   	push   eax
  40159d:	8d 85 78 fc ff ff    	lea    eax,[ebp-0x388]
  4015a3:	50                   	push   eax
  4015a4:	8d 85 68 f8 ff ff    	lea    eax,[ebp-0x798]
  4015aa:	50                   	push   eax
  4015ab:	e8 10 02 00 00       	call   0x4017c0
  4015b0:	83 c4 0c             	add    esp,0xc
  4015b3:	83 f8 00             	cmp    eax,0x0
  4015b6:	0f 85 13 00 00 00    	jne    0x4015cf
  4015bc:	b8 45 26 40 00       	mov    eax,0x402645
  4015c1:	50                   	push   eax
  4015c2:	e8 d9 01 00 00       	call   0x4017a0
  4015c7:	83 c4 04             	add    esp,0x4
  4015ca:	e9 0e 00 00 00       	jmp    0x4015dd
  4015cf:	b8 5a 26 40 00       	mov    eax,0x40265a
  4015d4:	50                   	push   eax
  4015d5:	e8 c6 01 00 00       	call   0x4017a0
  4015da:	83 c4 04             	add    esp,0x4
  4015dd:	b8 00 00 00 00       	mov    eax,0x0
  4015e2:	c9                   	leave
  4015e3:	c3                   	ret
  4015e4:	55                   	push   ebp
  4015e5:	89 e5                	mov    ebp,esp
  4015e7:	81 ec 24 00 00 00    	sub    esp,0x24
  4015ed:	90                   	nop
  4015ee:	8d 45 e8             	lea    eax,[ebp-0x18]
  4015f1:	50                   	push   eax
  4015f2:	e8 62 01 00 00       	call   0x401759
  4015f7:	83 c4 04             	add    esp,0x4
  4015fa:	b8 00 00 00 00       	mov    eax,0x0
  4015ff:	89 45 e4             	mov    DWORD PTR [ebp-0x1c],eax
  401602:	b8 01 00 00 00       	mov    eax,0x1
  401607:	50                   	push   eax
  401608:	e8 bb 01 00 00       	call   0x4017c8
  40160d:	83 c4 04             	add    esp,0x4
  401610:	b8 00 00 03 00       	mov    eax,0x30000
  401615:	50                   	push   eax
  401616:	b8 00 00 01 00       	mov    eax,0x10000
  40161b:	50                   	push   eax
  40161c:	e8 af 01 00 00       	call   0x4017d0
  401621:	83 c4 08             	add    esp,0x8
  401624:	8b 05 e4 26 40 00    	mov    eax,DWORD PTR ds:0x4026e4
  40162a:	8b 0d e8 26 40 00    	mov    ecx,DWORD PTR ds:0x4026e8
  401630:	8b 15 ec 26 40 00    	mov    edx,DWORD PTR ds:0x4026ec
  401636:	89 45 e0             	mov    DWORD PTR [ebp-0x20],eax
  401639:	8d 45 e4             	lea    eax,[ebp-0x1c]
  40163c:	50                   	push   eax
  40163d:	8b 05 3c 28 40 00    	mov    eax,DWORD PTR ds:0x40283c
  401643:	50                   	push   eax
  401644:	52                   	push   edx
  401645:	51                   	push   ecx
  401646:	8b 45 e0             	mov    eax,DWORD PTR [ebp-0x20]
  401649:	50                   	push   eax
  40164a:	e8 89 01 00 00       	call   0x4017d8
  40164f:	83 c4 14             	add    esp,0x14
  401652:	8b 05 e4 26 40 00    	mov    eax,DWORD PTR ds:0x4026e4
  401658:	8b 0d e8 26 40 00    	mov    ecx,DWORD PTR ds:0x4026e8
  40165e:	8b 15 ec 26 40 00    	mov    edx,DWORD PTR ds:0x4026ec
  401664:	89 45 dc             	mov    DWORD PTR [ebp-0x24],eax
  401667:	8b 02                	mov    eax,DWORD PTR [edx]
  401669:	50                   	push   eax
  40166a:	8b 01                	mov    eax,DWORD PTR [ecx]
  40166c:	50                   	push   eax
  40166d:	8b 45 dc             	mov    eax,DWORD PTR [ebp-0x24]
  401670:	8b 00                	mov    eax,DWORD PTR [eax]
  401672:	50                   	push   eax
  401673:	e8 88 f9 ff ff       	call   0x401000
  401678:	83 c4 0c             	add    esp,0xc
  40167b:	50                   	push   eax
  40167c:	e8 5f 01 00 00       	call   0x4017e0
  401681:	83 c4 04             	add    esp,0x4
  401684:	c9                   	leave
  401685:	c3                   	ret
  401686:	55                   	push   ebp
  401687:	89 e5                	mov    ebp,esp
  401689:	81 ec 04 00 00 00    	sub    esp,0x4
  40168f:	90                   	nop
  401690:	8b 05 e4 26 40 00    	mov    eax,DWORD PTR ds:0x4026e4
  401696:	8b 4d 08             	mov    ecx,DWORD PTR [ebp+0x8]
  401699:	89 08                	mov    DWORD PTR [eax],ecx
  40169b:	8b 05 e8 26 40 00    	mov    eax,DWORD PTR ds:0x4026e8
  4016a1:	8b 4d 0c             	mov    ecx,DWORD PTR [ebp+0xc]
  4016a4:	89 08                	mov    DWORD PTR [eax],ecx
  4016a6:	b8 00 00 03 00       	mov    eax,0x30000
  4016ab:	50                   	push   eax
  4016ac:	b8 00 00 01 00       	mov    eax,0x10000
  4016b1:	50                   	push   eax
  4016b2:	e8 19 01 00 00       	call   0x4017d0
  4016b7:	83 c4 08             	add    esp,0x8
  4016ba:	8b 05 e4 26 40 00    	mov    eax,DWORD PTR ds:0x4026e4
  4016c0:	8b 0d e8 26 40 00    	mov    ecx,DWORD PTR ds:0x4026e8
  4016c6:	8b 15 ec 26 40 00    	mov    edx,DWORD PTR ds:0x4026ec
  4016cc:	89 45 fc             	mov    DWORD PTR [ebp-0x4],eax
  4016cf:	8b 02                	mov    eax,DWORD PTR [edx]
  4016d1:	50                   	push   eax
  4016d2:	8b 01                	mov    eax,DWORD PTR [ecx]
  4016d4:	50                   	push   eax
  4016d5:	8b 45 fc             	mov    eax,DWORD PTR [ebp-0x4]
  4016d8:	8b 00                	mov    eax,DWORD PTR [eax]
  4016da:	50                   	push   eax
  4016db:	e8 20 f9 ff ff       	call   0x401000
  4016e0:	83 c4 0c             	add    esp,0xc
  4016e3:	c9                   	leave
  4016e4:	c3                   	ret
  4016e5:	00 00                	add    BYTE PTR [eax],al
  4016e7:	00 87 2c 24 55 8d    	add    BYTE PTR [edi-0x72aadbd4],al
  4016ed:	6c                   	ins    BYTE PTR es:[edi],dx
  4016ee:	24 04                	and    al,0x4
  4016f0:	51                   	push   ecx
  4016f1:	89 e9                	mov    ecx,ebp
  4016f3:	81 e9 00 10 00 00    	sub    ecx,0x1000
  4016f9:	85 01                	test   DWORD PTR [ecx],eax
  4016fb:	2d 00 10 00 00       	sub    eax,0x1000
  401700:	3d 00 10 00 00       	cmp    eax,0x1000
  401705:	7d ec                	jge    0x4016f3
  401707:	29 c1                	sub    ecx,eax
  401709:	85 01                	test   DWORD PTR [ecx],eax
  40170b:	89 e0                	mov    eax,esp
  40170d:	89 cc                	mov    esp,ecx
  40170f:	8b 08                	mov    ecx,DWORD PTR [eax]
  401711:	ff 60 04             	jmp    DWORD PTR [eax+0x4]
  401714:	8b 45 ec             	mov    eax,DWORD PTR [ebp-0x14]
  401717:	c3                   	ret
  401718:	e8 f7 ff ff ff       	call   0x401714
  40171d:	8b 00                	mov    eax,DWORD PTR [eax]
  40171f:	8b 00                	mov    eax,DWORD PTR [eax]
  401721:	c3                   	ret
  401722:	e8 ed ff ff ff       	call   0x401714
  401727:	50                   	push   eax
  401728:	e8 eb ff ff ff       	call   0x401718
  40172d:	50                   	push   eax
  40172e:	e8 b5 00 00 00       	call   0x4017e8
  401733:	83 c4 08             	add    esp,0x8
  401736:	c3                   	ret
  401737:	8b 65 e8             	mov    esp,DWORD PTR [ebp-0x18]
  40173a:	e8 d9 ff ff ff       	call   0x401718
  40173f:	50                   	push   eax
  401740:	e8 ab 00 00 00       	call   0x4017f0
  401745:	00 00                	add    BYTE PTR [eax],al
  401747:	00 ff                	add    bh,bh
  401749:	ff                   	(bad)
  40174a:	ff                   	(bad)
  40174b:	ff 22                	jmp    DWORD PTR [edx]
  40174d:	17                   	pop    ss
  40174e:	40                   	inc    eax
  40174f:	00 37                	add    BYTE PTR [edi],dh
  401751:	17                   	pop    ss
  401752:	40                   	inc    eax
  401753:	00 e9                	add    cl,ch
  401755:	9f                   	lahf
  401756:	00 00                	add    BYTE PTR [eax],al
  401758:	00 55 8b             	add    BYTE PTR [ebp-0x75],dl
  40175b:	6c                   	ins    BYTE PTR es:[edi],dx
  40175c:	24 08                	and    al,0x8
  40175e:	8d 44 24 0c          	lea    eax,[esp+0xc]
  401762:	89 45 00             	mov    DWORD PTR [ebp+0x0],eax
  401765:	31 c0                	xor    eax,eax
  401767:	89 45 04             	mov    DWORD PTR [ebp+0x4],eax
  40176a:	64 a1 00 00 00 00    	mov    eax,fs:0x0
  401770:	89 45 08             	mov    DWORD PTR [ebp+0x8],eax
  401773:	b8 54 17 40 00       	mov    eax,0x401754
  401778:	89 45 0c             	mov    DWORD PTR [ebp+0xc],eax
  40177b:	b8 48 17 40 00       	mov    eax,0x401748
  401780:	89 45 10             	mov    DWORD PTR [ebp+0x10],eax
  401783:	31 c0                	xor    eax,eax
  401785:	89 45 14             	mov    DWORD PTR [ebp+0x14],eax
  401788:	8d 45 08             	lea    eax,[ebp+0x8]
  40178b:	64 a3 00 00 00 00    	mov    fs:0x0,eax
  401791:	5d                   	pop    ebp
  401792:	c3                   	ret
  401793:	00 00                	add    BYTE PTR [eax],al
  401795:	00 00                	add    BYTE PTR [eax],al
  401797:	00 ff                	add    bh,bh
  401799:	25 bc 26 40 00       	and    eax,0x4026bc
  40179e:	00 00                	add    BYTE PTR [eax],al
  4017a0:	ff 25 c8 26 40 00    	jmp    DWORD PTR ds:0x4026c8
  4017a6:	00 00                	add    BYTE PTR [eax],al
  4017a8:	ff 25 c0 26 40 00    	jmp    DWORD PTR ds:0x4026c0
  4017ae:	00 00                	add    BYTE PTR [eax],al
  4017b0:	ff 25 d0 26 40 00    	jmp    DWORD PTR ds:0x4026d0
  4017b6:	00 00                	add    BYTE PTR [eax],al
  4017b8:	ff 25 d4 26 40 00    	jmp    DWORD PTR ds:0x4026d4
  4017be:	00 00                	add    BYTE PTR [eax],al
  4017c0:	ff 25 d8 26 40 00    	jmp    DWORD PTR ds:0x4026d8
  4017c6:	00 00                	add    BYTE PTR [eax],al
  4017c8:	ff 25 dc 26 40 00    	jmp    DWORD PTR ds:0x4026dc
  4017ce:	00 00                	add    BYTE PTR [eax],al
  4017d0:	ff 25 e0 26 40 00    	jmp    DWORD PTR ds:0x4026e0
  4017d6:	00 00                	add    BYTE PTR [eax],al
  4017d8:	ff 25 f0 26 40 00    	jmp    DWORD PTR ds:0x4026f0
  4017de:	00 00                	add    BYTE PTR [eax],al
  4017e0:	ff 25 f4 26 40 00    	jmp    DWORD PTR ds:0x4026f4
  4017e6:	00 00                	add    BYTE PTR [eax],al
  4017e8:	ff 25 f8 26 40 00    	jmp    DWORD PTR ds:0x4026f8
  4017ee:	00 00                	add    BYTE PTR [eax],al
  4017f0:	ff 25 fc 26 40 00    	jmp    DWORD PTR ds:0x4026fc
  4017f6:	00 00                	add    BYTE PTR [eax],al
  4017f8:	ff 25 00 27 40 00    	jmp    DWORD PTR ds:0x402700
	...
