
CrackME.exe:     file format pei-i386


Disassembly of section .text:

00401000 <.text>:
  401000:	68 00 3f 40 00       	push   $0x403f00
  401005:	e8 38 22 00 00       	call   0x403242
  40100a:	59                   	pop    %ecx
  40100b:	c3                   	ret
  40100c:	cc                   	int3
  40100d:	cc                   	int3
  40100e:	cc                   	int3
  40100f:	cc                   	int3
  401010:	68 2c 52 40 00       	push   $0x40522c
  401015:	b9 70 74 40 00       	mov    $0x407470,%ecx
  40101a:	e8 f1 14 00 00       	call   0x402510
  40101f:	68 60 3f 40 00       	push   $0x403f60
  401024:	e8 19 22 00 00       	call   0x403242
  401029:	59                   	pop    %ecx
  40102a:	c3                   	ret
  40102b:	cc                   	int3
  40102c:	cc                   	int3
  40102d:	cc                   	int3
  40102e:	cc                   	int3
  40102f:	cc                   	int3
  401030:	68 40 52 40 00       	push   $0x405240
  401035:	b9 58 74 40 00       	mov    $0x407458,%ecx
  40103a:	e8 d1 14 00 00       	call   0x402510
  40103f:	68 c0 3f 40 00       	push   $0x403fc0
  401044:	e8 f9 21 00 00       	call   0x403242
  401049:	59                   	pop    %ecx
  40104a:	c3                   	ret
  40104b:	cc                   	int3
  40104c:	cc                   	int3
  40104d:	cc                   	int3
  40104e:	cc                   	int3
  40104f:	cc                   	int3
  401050:	68 8c 52 40 00       	push   $0x40528c
  401055:	b9 40 74 40 00       	mov    $0x407440,%ecx
  40105a:	e8 b1 14 00 00       	call   0x402510
  40105f:	68 20 40 40 00       	push   $0x404020
  401064:	e8 d9 21 00 00       	call   0x403242
  401069:	59                   	pop    %ecx
  40106a:	c3                   	ret
  40106b:	cc                   	int3
  40106c:	cc                   	int3
  40106d:	cc                   	int3
  40106e:	cc                   	int3
  40106f:	cc                   	int3
  401070:	68 a8 52 40 00       	push   $0x4052a8
  401075:	b9 88 74 40 00       	mov    $0x407488,%ecx
  40107a:	e8 91 14 00 00       	call   0x402510
  40107f:	68 80 40 40 00       	push   $0x404080
  401084:	e8 b9 21 00 00       	call   0x403242
  401089:	59                   	pop    %ecx
  40108a:	c3                   	ret
  40108b:	68 d7 40 40 00       	push   $0x4040d7
  401090:	e8 ad 21 00 00       	call   0x403242
  401095:	59                   	pop    %ecx
  401096:	c3                   	ret
  401097:	cc                   	int3
  401098:	cc                   	int3
  401099:	cc                   	int3
  40109a:	cc                   	int3
  40109b:	cc                   	int3
  40109c:	cc                   	int3
  40109d:	cc                   	int3
  40109e:	cc                   	int3
  40109f:	cc                   	int3
  4010a0:	55                   	push   %ebp
  4010a1:	8b ec                	mov    %esp,%ebp
  4010a3:	56                   	push   %esi
  4010a4:	8b f1                	mov    %ecx,%esi
  4010a6:	0f 57 c0             	xorps  %xmm0,%xmm0
  4010a9:	8d 46 04             	lea    0x4(%esi),%eax
  4010ac:	50                   	push   %eax
  4010ad:	c7 06 b4 51 40 00    	movl   $0x4051b4,(%esi)
  4010b3:	66 0f d6 00          	movq   %xmm0,(%eax)
  4010b7:	8b 45 08             	mov    0x8(%ebp),%eax
  4010ba:	83 c0 04             	add    $0x4,%eax
  4010bd:	50                   	push   %eax
  4010be:	ff 15 b4 50 40 00    	call   *0x4050b4
  4010c4:	83 c4 08             	add    $0x8,%esp
  4010c7:	8b c6                	mov    %esi,%eax
  4010c9:	5e                   	pop    %esi
  4010ca:	5d                   	pop    %ebp
  4010cb:	c2 04 00             	ret    $0x4
  4010ce:	cc                   	int3
  4010cf:	cc                   	int3
  4010d0:	8b 49 04             	mov    0x4(%ecx),%ecx
  4010d3:	b8 e4 51 40 00       	mov    $0x4051e4,%eax
  4010d8:	85 c9                	test   %ecx,%ecx
  4010da:	0f 45 c1             	cmovne %ecx,%eax
  4010dd:	c3                   	ret
  4010de:	cc                   	int3
  4010df:	cc                   	int3
  4010e0:	55                   	push   %ebp
  4010e1:	8b ec                	mov    %esp,%ebp
  4010e3:	56                   	push   %esi
  4010e4:	8b f1                	mov    %ecx,%esi
  4010e6:	8d 46 04             	lea    0x4(%esi),%eax
  4010e9:	c7 06 b4 51 40 00    	movl   $0x4051b4,(%esi)
  4010ef:	50                   	push   %eax
  4010f0:	ff 15 c0 50 40 00    	call   *0x4050c0
  4010f6:	83 c4 04             	add    $0x4,%esp
  4010f9:	f6 45 08 01          	testb  $0x1,0x8(%ebp)
  4010fd:	74 0b                	je     0x40110a
  4010ff:	6a 0c                	push   $0xc
  401101:	56                   	push   %esi
  401102:	e8 50 21 00 00       	call   0x403257
  401107:	83 c4 08             	add    $0x8,%esp
  40110a:	8b c6                	mov    %esi,%eax
  40110c:	5e                   	pop    %esi
  40110d:	5d                   	pop    %ebp
  40110e:	c2 04 00             	ret    $0x4
  401111:	cc                   	int3
  401112:	cc                   	int3
  401113:	cc                   	int3
  401114:	cc                   	int3
  401115:	cc                   	int3
  401116:	cc                   	int3
  401117:	cc                   	int3
  401118:	cc                   	int3
  401119:	cc                   	int3
  40111a:	cc                   	int3
  40111b:	cc                   	int3
  40111c:	cc                   	int3
  40111d:	cc                   	int3
  40111e:	cc                   	int3
  40111f:	cc                   	int3
  401120:	8d 41 04             	lea    0x4(%ecx),%eax
  401123:	c7 01 b4 51 40 00    	movl   $0x4051b4,(%ecx)
  401129:	50                   	push   %eax
  40112a:	ff 15 c0 50 40 00    	call   *0x4050c0
  401130:	59                   	pop    %ecx
  401131:	c3                   	ret
  401132:	cc                   	int3
  401133:	cc                   	int3
  401134:	cc                   	int3
  401135:	cc                   	int3
  401136:	cc                   	int3
  401137:	cc                   	int3
  401138:	cc                   	int3
  401139:	cc                   	int3
  40113a:	cc                   	int3
  40113b:	cc                   	int3
  40113c:	cc                   	int3
  40113d:	cc                   	int3
  40113e:	cc                   	int3
  40113f:	cc                   	int3
  401140:	0f 57 c0             	xorps  %xmm0,%xmm0
  401143:	8b c1                	mov    %ecx,%eax
  401145:	66 0f d6 41 04       	movq   %xmm0,0x4(%ecx)
  40114a:	c7 41 04 f8 51 40 00 	movl   $0x4051f8,0x4(%ecx)
  401151:	c7 01 dc 51 40 00    	movl   $0x4051dc,(%ecx)
  401157:	c3                   	ret
  401158:	cc                   	int3
  401159:	cc                   	int3
  40115a:	cc                   	int3
  40115b:	cc                   	int3
  40115c:	cc                   	int3
  40115d:	cc                   	int3
  40115e:	cc                   	int3
  40115f:	cc                   	int3
  401160:	55                   	push   %ebp
  401161:	8b ec                	mov    %esp,%ebp
  401163:	83 ec 0c             	sub    $0xc,%esp
  401166:	8d 4d f4             	lea    -0xc(%ebp),%ecx
  401169:	e8 d2 ff ff ff       	call   0x401140
  40116e:	68 20 5c 40 00       	push   $0x405c20
  401173:	8d 45 f4             	lea    -0xc(%ebp),%eax
  401176:	50                   	push   %eax
  401177:	e8 60 2a 00 00       	call   0x403bdc
  40117c:	cc                   	int3
  40117d:	cc                   	int3
  40117e:	cc                   	int3
  40117f:	cc                   	int3
  401180:	55                   	push   %ebp
  401181:	8b ec                	mov    %esp,%ebp
  401183:	56                   	push   %esi
  401184:	8b f1                	mov    %ecx,%esi
  401186:	0f 57 c0             	xorps  %xmm0,%xmm0
  401189:	8d 46 04             	lea    0x4(%esi),%eax
  40118c:	50                   	push   %eax
  40118d:	c7 06 b4 51 40 00    	movl   $0x4051b4,(%esi)
  401193:	66 0f d6 00          	movq   %xmm0,(%eax)
  401197:	8b 45 08             	mov    0x8(%ebp),%eax
  40119a:	83 c0 04             	add    $0x4,%eax
  40119d:	50                   	push   %eax
  40119e:	ff 15 b4 50 40 00    	call   *0x4050b4
  4011a4:	83 c4 08             	add    $0x8,%esp
  4011a7:	c7 06 dc 51 40 00    	movl   $0x4051dc,(%esi)
  4011ad:	8b c6                	mov    %esi,%eax
  4011af:	5e                   	pop    %esi
  4011b0:	5d                   	pop    %ebp
  4011b1:	c2 04 00             	ret    $0x4
  4011b4:	cc                   	int3
  4011b5:	cc                   	int3
  4011b6:	cc                   	int3
  4011b7:	cc                   	int3
  4011b8:	cc                   	int3
  4011b9:	cc                   	int3
  4011ba:	cc                   	int3
  4011bb:	cc                   	int3
  4011bc:	cc                   	int3
  4011bd:	cc                   	int3
  4011be:	cc                   	int3
  4011bf:	cc                   	int3
  4011c0:	55                   	push   %ebp
  4011c1:	8b ec                	mov    %esp,%ebp
  4011c3:	56                   	push   %esi
  4011c4:	8b f1                	mov    %ecx,%esi
  4011c6:	0f 57 c0             	xorps  %xmm0,%xmm0
  4011c9:	8d 46 04             	lea    0x4(%esi),%eax
  4011cc:	50                   	push   %eax
  4011cd:	c7 06 b4 51 40 00    	movl   $0x4051b4,(%esi)
  4011d3:	66 0f d6 00          	movq   %xmm0,(%eax)
  4011d7:	8b 45 08             	mov    0x8(%ebp),%eax
  4011da:	83 c0 04             	add    $0x4,%eax
  4011dd:	50                   	push   %eax
  4011de:	ff 15 b4 50 40 00    	call   *0x4050b4
  4011e4:	83 c4 08             	add    $0x8,%esp
  4011e7:	c7 06 c0 51 40 00    	movl   $0x4051c0,(%esi)
  4011ed:	8b c6                	mov    %esi,%eax
  4011ef:	5e                   	pop    %esi
  4011f0:	5d                   	pop    %ebp
  4011f1:	c2 04 00             	ret    $0x4
  4011f4:	cc                   	int3
  4011f5:	cc                   	int3
  4011f6:	cc                   	int3
  4011f7:	cc                   	int3
  4011f8:	cc                   	int3
  4011f9:	cc                   	int3
  4011fa:	cc                   	int3
  4011fb:	cc                   	int3
  4011fc:	cc                   	int3
  4011fd:	cc                   	int3
  4011fe:	cc                   	int3
  4011ff:	cc                   	int3
  401200:	68 10 52 40 00       	push   $0x405210
  401205:	ff 15 90 50 40 00    	call   *0x405090
  40120b:	cc                   	int3
  40120c:	cc                   	int3
  40120d:	cc                   	int3
  40120e:	cc                   	int3
  40120f:	cc                   	int3
  401210:	0f 57 c0             	xorps  %xmm0,%xmm0
  401213:	8b c1                	mov    %ecx,%eax
  401215:	66 0f d6 41 04       	movq   %xmm0,0x4(%ecx)
  40121a:	c7 41 04 20 52 40 00 	movl   $0x405220,0x4(%ecx)
  401221:	c7 01 08 53 40 00    	movl   $0x405308,(%ecx)
  401227:	c3                   	ret
  401228:	cc                   	int3
  401229:	cc                   	int3
  40122a:	cc                   	int3
  40122b:	cc                   	int3
  40122c:	cc                   	int3
  40122d:	cc                   	int3
  40122e:	cc                   	int3
  40122f:	cc                   	int3
  401230:	55                   	push   %ebp
  401231:	8b ec                	mov    %esp,%ebp
  401233:	83 ec 0c             	sub    $0xc,%esp
  401236:	8d 4d f4             	lea    -0xc(%ebp),%ecx
  401239:	e8 d2 ff ff ff       	call   0x401210
  40123e:	68 f4 5b 40 00       	push   $0x405bf4
  401243:	8b c1                	mov    %ecx,%eax
  401245:	50                   	push   %eax
  401246:	e8 91 29 00 00       	call   0x403bdc
  40124b:	cc                   	int3
  40124c:	cc                   	int3
  40124d:	cc                   	int3
  40124e:	cc                   	int3
  40124f:	cc                   	int3
  401250:	55                   	push   %ebp
  401251:	8b ec                	mov    %esp,%ebp
  401253:	56                   	push   %esi
  401254:	8b f1                	mov    %ecx,%esi
  401256:	0f 57 c0             	xorps  %xmm0,%xmm0
  401259:	8d 46 04             	lea    0x4(%esi),%eax
  40125c:	50                   	push   %eax
  40125d:	c7 06 b4 51 40 00    	movl   $0x4051b4,(%esi)
  401263:	66 0f d6 00          	movq   %xmm0,(%eax)
  401267:	8b 45 08             	mov    0x8(%ebp),%eax
  40126a:	83 c0 04             	add    $0x4,%eax
  40126d:	50                   	push   %eax
  40126e:	ff 15 b4 50 40 00    	call   *0x4050b4
  401274:	83 c4 08             	add    $0x8,%esp
  401277:	c7 06 08 53 40 00    	movl   $0x405308,(%esi)
  40127d:	8b c6                	mov    %esi,%eax
  40127f:	5e                   	pop    %esi
  401280:	5d                   	pop    %ebp
  401281:	c2 04 00             	ret    $0x4
  401284:	cc                   	int3
  401285:	cc                   	int3
  401286:	cc                   	int3
  401287:	cc                   	int3
  401288:	cc                   	int3
  401289:	cc                   	int3
  40128a:	cc                   	int3
  40128b:	cc                   	int3
  40128c:	cc                   	int3
  40128d:	cc                   	int3
  40128e:	cc                   	int3
  40128f:	cc                   	int3
  401290:	8b 49 04             	mov    0x4(%ecx),%ecx
  401293:	85 c9                	test   %ecx,%ecx
  401295:	74 11                	je     0x4012a8
  401297:	8b 01                	mov    (%ecx),%eax
  401299:	ff 50 08             	call   *0x8(%eax)
  40129c:	85 c0                	test   %eax,%eax
  40129e:	74 08                	je     0x4012a8
  4012a0:	8b 10                	mov    (%eax),%edx
  4012a2:	8b c8                	mov    %eax,%ecx
  4012a4:	6a 01                	push   $0x1
  4012a6:	ff 12                	call   *(%edx)
  4012a8:	c3                   	ret
  4012a9:	cc                   	int3
  4012aa:	cc                   	int3
  4012ab:	cc                   	int3
  4012ac:	cc                   	int3
  4012ad:	cc                   	int3
  4012ae:	cc                   	int3
  4012af:	cc                   	int3
  4012b0:	83 79 04 00          	cmpl   $0x0,0x4(%ecx)
  4012b4:	74 06                	je     0x4012bc
  4012b6:	ff 25 3c 51 40 00    	jmp    *0x40513c
  4012bc:	c3                   	ret
  4012bd:	cc                   	int3
  4012be:	cc                   	int3
  4012bf:	cc                   	int3
  4012c0:	53                   	push   %ebx
  4012c1:	8b dc                	mov    %esp,%ebx
  4012c3:	83 ec 08             	sub    $0x8,%esp
  4012c6:	83 e4 e0             	and    $0xffffffe0,%esp
  4012c9:	83 c4 04             	add    $0x4,%esp
  4012cc:	55                   	push   %ebp
  4012cd:	8b 6b 04             	mov    0x4(%ebx),%ebp
  4012d0:	89 6c 24 04          	mov    %ebp,0x4(%esp)
  4012d4:	8b ec                	mov    %esp,%ebp
  4012d6:	81 ec dc 00 00 00    	sub    $0xdc,%esp
  4012dc:	a1 04 70 40 00       	mov    0x407004,%eax
  4012e1:	33 c5                	xor    %ebp,%eax
  4012e3:	89 45 fc             	mov    %eax,-0x4(%ebp)
  4012e6:	56                   	push   %esi
  4012e7:	8b 35 78 50 40 00    	mov    0x405078,%esi
  4012ed:	c7 45 98 0f eb 0e de 	movl   $0xde0eeb0f,-0x68(%ebp)
  4012f4:	c7 45 9c 15 28 23 bc 	movl   $0xbc232815,-0x64(%ebp)
  4012fb:	8b 45 98             	mov    -0x68(%ebp),%eax
  4012fe:	8b 4d 9c             	mov    -0x64(%ebp),%ecx
  401301:	89 85 40 ff ff ff    	mov    %eax,-0xc0(%ebp)
  401307:	89 8d 44 ff ff ff    	mov    %ecx,-0xbc(%ebp)
  40130d:	c7 45 98 63 49 d6 5e 	movl   $0x5ed64963,-0x68(%ebp)
  401314:	c7 45 9c a6 a5 fa 72 	movl   $0x72faa5a6,-0x64(%ebp)
  40131b:	8b 45 98             	mov    -0x68(%ebp),%eax
  40131e:	8b 4d 9c             	mov    -0x64(%ebp),%ecx
  401321:	89 85 48 ff ff ff    	mov    %eax,-0xb8(%ebp)
  401327:	89 8d 4c ff ff ff    	mov    %ecx,-0xb4(%ebp)
  40132d:	c7 45 98 ee 4a 59 74 	movl   $0x74594aee,-0x68(%ebp)
  401334:	c7 45 9c 18 79 c3 00 	movl   $0xc37918,-0x64(%ebp)
  40133b:	8b 45 98             	mov    -0x68(%ebp),%eax
  40133e:	8b 4d 9c             	mov    -0x64(%ebp),%ecx
  401341:	89 85 50 ff ff ff    	mov    %eax,-0xb0(%ebp)
  401347:	89 8d 54 ff ff ff    	mov    %ecx,-0xac(%ebp)
  40134d:	c7 45 98 79 37 da 70 	movl   $0x70da3779,-0x68(%ebp)
  401354:	c7 45 9c de 4b 99 66 	movl   $0x66994bde,-0x64(%ebp)
  40135b:	8b 45 98             	mov    -0x68(%ebp),%eax
  40135e:	8b 4d 9c             	mov    -0x64(%ebp),%ecx
  401361:	89 85 58 ff ff ff    	mov    %eax,-0xa8(%ebp)
  401367:	89 8d 5c ff ff ff    	mov    %ecx,-0xa4(%ebp)
  40136d:	c7 45 98 7d fc 1f ed 	movl   $0xed1ffc7d,-0x68(%ebp)
  401374:	c7 45 9c 8a 9f a5 8d 	movl   $0x8da59f8a,-0x64(%ebp)
  40137b:	8b 45 98             	mov    -0x68(%ebp),%eax
  40137e:	8b 4d 9c             	mov    -0x64(%ebp),%ecx
  401381:	89 85 60 ff ff ff    	mov    %eax,-0xa0(%ebp)
  401387:	89 8d 64 ff ff ff    	mov    %ecx,-0x9c(%ebp)
  40138d:	c7 45 98 ce ca 0c 92 	movl   $0x920ccace,-0x68(%ebp)
  401394:	c7 45 9c 38 59 13 17 	movl   $0x17135938,-0x64(%ebp)
  40139b:	8b 45 98             	mov    -0x68(%ebp),%eax
  40139e:	8b 4d 9c             	mov    -0x64(%ebp),%ecx
  4013a1:	89 85 68 ff ff ff    	mov    %eax,-0x98(%ebp)
  4013a7:	89 8d 6c ff ff ff    	mov    %ecx,-0x94(%ebp)
  4013ad:	c7 45 98 05 e1 41 b6 	movl   $0xb641e105,-0x68(%ebp)
  4013b4:	c7 45 9c 35 46 4c 9c 	movl   $0x9c4c4635,-0x64(%ebp)
  4013bb:	8b 45 98             	mov    -0x68(%ebp),%eax
  4013be:	8b 4d 9c             	mov    -0x64(%ebp),%ecx
  4013c1:	89 45 a0             	mov    %eax,-0x60(%ebp)
  4013c4:	89 4d a4             	mov    %ecx,-0x5c(%ebp)
  4013c7:	c7 45 98 1a 26 a3 7e 	movl   $0x7ea3261a,-0x68(%ebp)
  4013ce:	c7 45 9c d4 c4 94 52 	movl   $0x5294c4d4,-0x64(%ebp)
  4013d5:	8b 45 98             	mov    -0x68(%ebp),%eax
  4013d8:	8b 4d 9c             	mov    -0x64(%ebp),%ecx
  4013db:	89 45 a8             	mov    %eax,-0x58(%ebp)
  4013de:	89 4d ac             	mov    %ecx,-0x54(%ebp)
  4013e1:	c7 45 98 87 24 79 00 	movl   $0x792487,-0x68(%ebp)
  4013e8:	c7 45 9c 77 59 ac 6e 	movl   $0x6eac5977,-0x64(%ebp)
  4013ef:	8b 45 98             	mov    -0x68(%ebp),%eax
  4013f2:	8b 4d 9c             	mov    -0x64(%ebp),%ecx
  4013f5:	89 45 b0             	mov    %eax,-0x50(%ebp)
  4013f8:	89 4d b4             	mov    %ecx,-0x4c(%ebp)
  4013fb:	c7 45 98 1c 17 b5 16 	movl   $0x16b5171c,-0x68(%ebp)
  401402:	c7 45 9c fe 26 e0 46 	movl   $0x46e026fe,-0x64(%ebp)
  401409:	8b 45 98             	mov    -0x68(%ebp),%eax
  40140c:	8b 4d 9c             	mov    -0x64(%ebp),%ecx
  40140f:	89 45 b8             	mov    %eax,-0x48(%ebp)
  401412:	89 4d bc             	mov    %ecx,-0x44(%ebp)
  401415:	c7 45 98 09 8e 7e 9d 	movl   $0x9d7e8e09,-0x68(%ebp)
  40141c:	c7 45 9c f9 b1 a5 8d 	movl   $0x8da5b1f9,-0x64(%ebp)
  401423:	8b 45 98             	mov    -0x68(%ebp),%eax
  401426:	8b 4d 9c             	mov    -0x64(%ebp),%ecx
  401429:	89 45 c0             	mov    %eax,-0x40(%ebp)
  40142c:	89 4d c4             	mov    %ecx,-0x3c(%ebp)
  40142f:	c7 45 98 ce ca 0c 92 	movl   $0x920ccace,-0x68(%ebp)
  401436:	c7 45 9c 38 59 13 17 	movl   $0x17135938,-0x64(%ebp)
  40143d:	8b 45 98             	mov    -0x68(%ebp),%eax
  401440:	8b 55 9c             	mov    -0x64(%ebp),%edx
  401443:	c5 fe 6f 45 a0       	vmovdqu -0x60(%ebp),%ymm0
  401448:	c5 fd ef 85 40 ff ff 	vpxor  -0xc0(%ebp),%ymm0,%ymm0
  40144f:	ff 
  401450:	89 55 cc             	mov    %edx,-0x34(%ebp)
  401453:	8d 95 40 ff ff ff    	lea    -0xc0(%ebp),%edx
  401459:	89 45 c8             	mov    %eax,-0x38(%ebp)
  40145c:	c5 fd 7f 85 40 ff ff 	vmovdqa %ymm0,-0xc0(%ebp)
  401463:	ff 
  401464:	c5 f8 28 8d 60 ff ff 	vmovaps -0xa0(%ebp),%xmm1
  40146b:	ff 
  40146c:	c5 f1 ef 4d c0       	vpxor  -0x40(%ebp),%xmm1,%xmm1
  401471:	c5 f8 29 8d 60 ff ff 	vmovaps %xmm1,-0xa0(%ebp)
  401478:	ff 
  401479:	8b ce                	mov    %esi,%ecx
  40147b:	c5 f8 77             	vzeroupper
  40147e:	e8 9d 13 00 00       	call   0x402820
  401483:	68 ac 0d 00 00       	push   $0xdac
  401488:	ff 15 00 50 40 00    	call   *0x405000
  40148e:	6a 45                	push   $0x45
  401490:	ff 15 00 51 40 00    	call   *0x405100
  401496:	cc                   	int3
  401497:	cc                   	int3
  401498:	cc                   	int3
  401499:	cc                   	int3
  40149a:	cc                   	int3
  40149b:	cc                   	int3
  40149c:	cc                   	int3
  40149d:	cc                   	int3
  40149e:	cc                   	int3
  40149f:	cc                   	int3
  4014a0:	55                   	push   %ebp
  4014a1:	8b ec                	mov    %esp,%ebp
  4014a3:	83 e4 f8             	and    $0xfffffff8,%esp
  4014a6:	80 3d 3c 74 40 00 00 	cmpb   $0x0,0x40743c
  4014ad:	75 19                	jne    0x4014c8
  4014af:	8a 0d 38 74 40 00    	mov    0x407438,%cl
  4014b5:	a0 3a 74 40 00       	mov    0x40743a,%al
  4014ba:	66 0f 1f 44 00 00    	nopw   0x0(%eax,%eax,1)
  4014c0:	84 c9                	test   %cl,%cl
  4014c2:	75 04                	jne    0x4014c8
  4014c4:	84 c0                	test   %al,%al
  4014c6:	74 f8                	je     0x4014c0
  4014c8:	e9 f3 fd ff ff       	jmp    0x4012c0
  4014cd:	cc                   	int3
  4014ce:	cc                   	int3
  4014cf:	cc                   	int3
  4014d0:	53                   	push   %ebx
  4014d1:	8b dc                	mov    %esp,%ebx
  4014d3:	83 ec 08             	sub    $0x8,%esp
  4014d6:	83 e4 e0             	and    $0xffffffe0,%esp
  4014d9:	83 c4 04             	add    $0x4,%esp
  4014dc:	55                   	push   %ebp
  4014dd:	8b 6b 04             	mov    0x4(%ebx),%ebp
  4014e0:	89 6c 24 04          	mov    %ebp,0x4(%esp)
  4014e4:	8b ec                	mov    %esp,%ebp
  4014e6:	81 ec 5c 01 00 00    	sub    $0x15c,%esp
  4014ec:	a1 04 70 40 00       	mov    0x407004,%eax
  4014f1:	33 c5                	xor    %ebp,%eax
  4014f3:	89 45 fc             	mov    %eax,-0x4(%ebp)
  4014f6:	80 3d 39 74 40 00 00 	cmpb   $0x0,0x407439
  4014fd:	56                   	push   %esi
  4014fe:	0f 84 9f 03 00 00    	je     0x4018a3
  401504:	80 3d 3d 74 40 00 00 	cmpb   $0x0,0x40743d
  40150b:	0f 84 92 03 00 00    	je     0x4018a3
  401511:	80 3d 3b 74 40 00 00 	cmpb   $0x0,0x40743b
  401518:	8b 35 78 50 40 00    	mov    0x405078,%esi
  40151e:	0f 94 05 3b 74 40 00 	sete   0x40743b
  401525:	c7 85 58 ff ff ff 0f 	movl   $0xd902eb0f,-0xa8(%ebp)
  40152c:	eb 02 d9 
  40152f:	c7 85 5c ff ff ff 5b 	movl   $0xfd3e215b,-0xa4(%ebp)
  401536:	21 3e fd 
  401539:	8b 85 58 ff ff ff    	mov    -0xa8(%ebp),%eax
  40153f:	8b 8d 5c ff ff ff    	mov    -0xa4(%ebp),%ecx
  401545:	89 85 c0 fe ff ff    	mov    %eax,-0x140(%ebp)
  40154b:	89 8d c4 fe ff ff    	mov    %ecx,-0x13c(%ebp)
  401551:	c7 85 58 ff ff ff 6e 	movl   $0x783556e,-0xa8(%ebp)
  401558:	55 83 07 
  40155b:	c7 85 5c ff ff ff bb 	movl   $0x21b4b1bb,-0xa4(%ebp)
  401562:	b1 b4 21 
  401565:	8b 85 58 ff ff ff    	mov    -0xa8(%ebp),%eax
  40156b:	8b 8d 5c ff ff ff    	mov    -0xa4(%ebp),%ecx
  401571:	89 85 c8 fe ff ff    	mov    %eax,-0x138(%ebp)
  401577:	89 8d cc fe ff ff    	mov    %ecx,-0x134(%ebp)
  40157d:	c7 85 58 ff ff ff e8 	movl   $0x681c49e8,-0xa8(%ebp)
  401584:	49 1c 68 
  401587:	c7 85 5c ff ff ff 18 	movl   $0x38c2e18,-0xa4(%ebp)
  40158e:	2e 8c 03 
  401591:	8b 85 58 ff ff ff    	mov    -0xa8(%ebp),%eax
  401597:	8b 8d 5c ff ff ff    	mov    -0xa4(%ebp),%ecx
  40159d:	89 85 d0 fe ff ff    	mov    %eax,-0x130(%ebp)
  4015a3:	89 8d d4 fe ff ff    	mov    %ecx,-0x12c(%ebp)
  4015a9:	c7 85 58 ff ff ff 7d 	movl   $0x71d4797d,-0xa8(%ebp)
  4015b0:	79 d4 71 
  4015b3:	c7 85 5c ff ff ff 9b 	movl   $0x32c0429b,-0xa4(%ebp)
  4015ba:	42 c0 32 
  4015bd:	8b 85 58 ff ff ff    	mov    -0xa8(%ebp),%eax
  4015c3:	8b 8d 5c ff ff ff    	mov    -0xa4(%ebp),%ecx
  4015c9:	89 85 d8 fe ff ff    	mov    %eax,-0x128(%ebp)
  4015cf:	89 8d dc fe ff ff    	mov    %ecx,-0x124(%ebp)
  4015d5:	c7 85 58 ff ff ff 66 	movl   $0xe41cae66,-0xa8(%ebp)
  4015dc:	ae 1c e4 
  4015df:	c7 85 5c ff ff ff 89 	movl   $0xfed6d089,-0xa4(%ebp)
  4015e6:	d0 d6 fe 
  4015e9:	8b 85 58 ff ff ff    	mov    -0xa8(%ebp),%eax
  4015ef:	8b 8d 5c ff ff ff    	mov    -0xa4(%ebp),%ecx
  4015f5:	89 85 e0 fe ff ff    	mov    %eax,-0x120(%ebp)
  4015fb:	89 8d e4 fe ff ff    	mov    %ecx,-0x11c(%ebp)
  401601:	c7 85 58 ff ff ff ee 	movl   $0xf764beee,-0xa8(%ebp)
  401608:	be 64 f7 
  40160b:	c7 85 5c ff ff ff 18 	movl   $0x727b1a18,-0xa4(%ebp)
  401612:	1a 7b 72 
  401615:	8b 85 58 ff ff ff    	mov    -0xa8(%ebp),%eax
  40161b:	8b 8d 5c ff ff ff    	mov    -0xa4(%ebp),%ecx
  401621:	89 85 e8 fe ff ff    	mov    %eax,-0x118(%ebp)
  401627:	89 8d ec fe ff ff    	mov    %ecx,-0x114(%ebp)
  40162d:	c7 85 58 ff ff ff e8 	movl   $0x760c67e8,-0xa8(%ebp)
  401634:	67 0c 76 
  401637:	c7 85 5c ff ff ff 1b 	movl   $0x1aff461b,-0xa4(%ebp)
  40163e:	46 ff 1a 
  401641:	8b 85 58 ff ff ff    	mov    -0xa8(%ebp),%eax
  401647:	8b 8d 5c ff ff ff    	mov    -0xa4(%ebp),%ecx
  40164d:	89 85 f0 fe ff ff    	mov    %eax,-0x110(%ebp)
  401653:	89 8d f4 fe ff ff    	mov    %ecx,-0x10c(%ebp)
  401659:	c7 85 58 ff ff ff 21 	movl   $0x75a63d21,-0xa8(%ebp)
  401660:	3d a6 75 
  401663:	c7 85 5c ff ff ff e5 	movl   $0x4964ade5,-0xa4(%ebp)
  40166a:	ad 64 49 
  40166d:	8b 85 58 ff ff ff    	mov    -0xa8(%ebp),%eax
  401673:	8b 8d 5c ff ff ff    	mov    -0xa4(%ebp),%ecx
  401679:	89 85 f8 fe ff ff    	mov    %eax,-0x108(%ebp)
  40167f:	89 8d fc fe ff ff    	mov    %ecx,-0x104(%ebp)
  401685:	c7 85 58 ff ff ff be 	movl   $0x92feefbe,-0xa8(%ebp)
  40168c:	ef fe 92 
  40168f:	c7 85 5c ff ff ff 8d 	movl   $0x7b48758d,-0xa4(%ebp)
  401696:	75 48 7b 
  401699:	8b 85 58 ff ff ff    	mov    -0xa8(%ebp),%eax
  40169f:	8b 8d 5c ff ff ff    	mov    -0xa4(%ebp),%ecx
  4016a5:	89 85 00 ff ff ff    	mov    %eax,-0x100(%ebp)
  4016ab:	89 8d 04 ff ff ff    	mov    %ecx,-0xfc(%ebp)
  4016b1:	c7 85 58 ff ff ff 26 	movl   $0x530abe26,-0xa8(%ebp)
  4016b8:	be 0a 53 
  4016bb:	c7 85 5c ff ff ff 0c 	movl   $0xbd4a540c,-0xa4(%ebp)
  4016c2:	54 4a bd 
  4016c5:	8b 85 58 ff ff ff    	mov    -0xa8(%ebp),%eax
  4016cb:	8b 8d 5c ff ff ff    	mov    -0xa4(%ebp),%ecx
  4016d1:	89 85 08 ff ff ff    	mov    %eax,-0xf8(%ebp)
  4016d7:	89 8d 0c ff ff ff    	mov    %ecx,-0xf4(%ebp)
  4016dd:	c7 85 58 ff ff ff 05 	movl   $0xb641e105,-0xa8(%ebp)
  4016e4:	e1 41 b6 
  4016e7:	c7 85 5c ff ff ff 35 	movl   $0x9c4c4635,-0xa4(%ebp)
  4016ee:	46 4c 9c 
  4016f1:	8b 85 58 ff ff ff    	mov    -0xa8(%ebp),%eax
  4016f7:	8b 8d 5c ff ff ff    	mov    -0xa4(%ebp),%ecx
  4016fd:	89 45 80             	mov    %eax,-0x80(%ebp)
  401700:	89 4d 84             	mov    %ecx,-0x7c(%ebp)
  401703:	c7 85 58 ff ff ff 1a 	movl   $0x7ea3261a,-0xa8(%ebp)
  40170a:	26 a3 7e 
  40170d:	c7 85 5c ff ff ff d4 	movl   $0x5294c4d4,-0xa4(%ebp)
  401714:	c4 94 52 
  401717:	8b 85 58 ff ff ff    	mov    -0xa8(%ebp),%eax
  40171d:	8b 8d 5c ff ff ff    	mov    -0xa4(%ebp),%ecx
  401723:	89 45 88             	mov    %eax,-0x78(%ebp)
  401726:	89 4d 8c             	mov    %ecx,-0x74(%ebp)
  401729:	c7 85 58 ff ff ff 87 	movl   $0x792487,-0xa8(%ebp)
  401730:	24 79 00 
  401733:	c7 85 5c ff ff ff 77 	movl   $0x6eac5977,-0xa4(%ebp)
  40173a:	59 ac 6e 
  40173d:	8b 85 58 ff ff ff    	mov    -0xa8(%ebp),%eax
  401743:	8b 8d 5c ff ff ff    	mov    -0xa4(%ebp),%ecx
  401749:	89 45 90             	mov    %eax,-0x70(%ebp)
  40174c:	89 4d 94             	mov    %ecx,-0x6c(%ebp)
  40174f:	c7 85 58 ff ff ff 1c 	movl   $0x16b5171c,-0xa8(%ebp)
  401756:	17 b5 16 
  401759:	8d 95 c0 fe ff ff    	lea    -0x140(%ebp),%edx
  40175f:	c7 85 5c ff ff ff fe 	movl   $0x46e026fe,-0xa4(%ebp)
  401766:	26 e0 46 
  401769:	8b 85 58 ff ff ff    	mov    -0xa8(%ebp),%eax
  40176f:	8b 8d 5c ff ff ff    	mov    -0xa4(%ebp),%ecx
  401775:	89 45 98             	mov    %eax,-0x68(%ebp)
  401778:	89 4d 9c             	mov    %ecx,-0x64(%ebp)
  40177b:	c7 85 58 ff ff ff 09 	movl   $0x9d7e8e09,-0xa8(%ebp)
  401782:	8e 7e 9d 
  401785:	c7 85 5c ff ff ff f9 	movl   $0x8da5b1f9,-0xa4(%ebp)
  40178c:	b1 a5 8d 
  40178f:	8b 85 58 ff ff ff    	mov    -0xa8(%ebp),%eax
  401795:	8b 8d 5c ff ff ff    	mov    -0xa4(%ebp),%ecx
  40179b:	89 45 a0             	mov    %eax,-0x60(%ebp)
  40179e:	89 4d a4             	mov    %ecx,-0x5c(%ebp)
  4017a1:	c7 85 58 ff ff ff ce 	movl   $0x920ccace,-0xa8(%ebp)
  4017a8:	ca 0c 92 
  4017ab:	c7 85 5c ff ff ff 38 	movl   $0x17135938,-0xa4(%ebp)
  4017b2:	59 13 17 
  4017b5:	8b 85 58 ff ff ff    	mov    -0xa8(%ebp),%eax
  4017bb:	8b 8d 5c ff ff ff    	mov    -0xa4(%ebp),%ecx
  4017c1:	89 45 a8             	mov    %eax,-0x58(%ebp)
  4017c4:	89 4d ac             	mov    %ecx,-0x54(%ebp)
  4017c7:	c7 85 58 ff ff ff 8b 	movl   $0x5a7f0c8b,-0xa8(%ebp)
  4017ce:	0c 7f 5a 
  4017d1:	c7 85 5c ff ff ff 3b 	movl   $0x3a90213b,-0xa4(%ebp)
  4017d8:	21 90 3a 
  4017db:	8b 85 58 ff ff ff    	mov    -0xa8(%ebp),%eax
  4017e1:	8b 8d 5c ff ff ff    	mov    -0xa4(%ebp),%ecx
  4017e7:	89 45 b0             	mov    %eax,-0x50(%ebp)
  4017ea:	89 4d b4             	mov    %ecx,-0x4c(%ebp)
  4017ed:	c7 85 58 ff ff ff 40 	movl   $0x55c25340,-0xa8(%ebp)
  4017f4:	53 c2 55 
  4017f7:	c7 85 5c ff ff ff 82 	movl   $0x6910c882,-0xa4(%ebp)
  4017fe:	c8 10 69 
  401801:	8b 85 58 ff ff ff    	mov    -0xa8(%ebp),%eax
  401807:	8b 8d 5c ff ff ff    	mov    -0xa4(%ebp),%ecx
  40180d:	89 45 b8             	mov    %eax,-0x48(%ebp)
  401810:	89 4d bc             	mov    %ecx,-0x44(%ebp)
  401813:	c7 85 58 ff ff ff cd 	movl   $0xf79380cd,-0xa8(%ebp)
  40181a:	80 93 f7 
  40181d:	c7 85 5c ff ff ff ad 	movl   $0x152936ad,-0xa4(%ebp)
  401824:	36 29 15 
  401827:	8b 85 58 ff ff ff    	mov    -0xa8(%ebp),%eax
  40182d:	8b 8d 5c ff ff ff    	mov    -0xa4(%ebp),%ecx
  401833:	89 45 c0             	mov    %eax,-0x40(%ebp)
  401836:	89 4d c4             	mov    %ecx,-0x3c(%ebp)
  401839:	c7 85 58 ff ff ff 42 	movl   $0x5324c742,-0xa8(%ebp)
  401840:	c7 24 53 
  401843:	c7 85 5c ff ff ff 0c 	movl   $0xbd4a540c,-0xa4(%ebp)
  40184a:	54 4a bd 
  40184d:	8b 85 58 ff ff ff    	mov    -0xa8(%ebp),%eax
  401853:	8b 8d 5c ff ff ff    	mov    -0xa4(%ebp),%ecx
  401859:	c5 fe 6f 45 80       	vmovdqu -0x80(%ebp),%ymm0
  40185e:	c5 fd ef 85 c0 fe ff 	vpxor  -0x140(%ebp),%ymm0,%ymm0
  401865:	ff 
  401866:	c5 fd 7f 85 c0 fe ff 	vmovdqa %ymm0,-0x140(%ebp)
  40186d:	ff 
  40186e:	c5 fe 6f 85 e0 fe ff 	vmovdqu -0x120(%ebp),%ymm0
  401875:	ff 
  401876:	c5 fd ef 45 a0       	vpxor  -0x60(%ebp),%ymm0,%ymm0
  40187b:	89 45 c8             	mov    %eax,-0x38(%ebp)
  40187e:	89 4d cc             	mov    %ecx,-0x34(%ebp)
  401881:	c5 fd 7f 85 e0 fe ff 	vmovdqa %ymm0,-0x120(%ebp)
  401888:	ff 
  401889:	c5 f8 28 8d 00 ff ff 	vmovaps -0x100(%ebp),%xmm1
  401890:	ff 
  401891:	c5 f1 ef 4d c0       	vpxor  -0x40(%ebp),%xmm1,%xmm1
  401896:	c5 f8 29 8d 00 ff ff 	vmovaps %xmm1,-0x100(%ebp)
  40189d:	ff 
  40189e:	e9 8b 01 00 00       	jmp    0x401a2e
  4018a3:	8b 35 78 50 40 00    	mov    0x405078,%esi
  4018a9:	c6 05 3a 74 40 00 00 	movb   $0x0,0x40743a
  4018b0:	c7 85 58 ff ff ff 0f 	movl   $0xde15eb0f,-0xa8(%ebp)
  4018b7:	eb 15 de 
  4018ba:	c7 85 5c ff ff ff 54 	movl   $0xf86c3254,-0xa4(%ebp)
  4018c1:	32 6c f8 
  4018c4:	8b 85 58 ff ff ff    	mov    -0xa8(%ebp),%eax
  4018ca:	8b 8d 5c ff ff ff    	mov    -0xa4(%ebp),%ecx
  4018d0:	89 85 20 ff ff ff    	mov    %eax,-0xe0(%ebp)
  4018d6:	89 8d 24 ff ff ff    	mov    %ecx,-0xdc(%ebp)
  4018dc:	c7 85 58 ff ff ff 75 	movl   $0x10d04375,-0xa8(%ebp)
  4018e3:	43 d0 10 
  4018e6:	c7 85 5c ff ff ff a0 	movl   $0x37e7e4a0,-0xa4(%ebp)
  4018ed:	e4 e7 37 
  4018f0:	8b 85 58 ff ff ff    	mov    -0xa8(%ebp),%eax
  4018f6:	8b 8d 5c ff ff ff    	mov    -0xa4(%ebp),%ecx
  4018fc:	89 85 28 ff ff ff    	mov    %eax,-0xd8(%ebp)
  401902:	89 8d 2c ff ff ff    	mov    %ecx,-0xd4(%ebp)
  401908:	c7 85 58 ff ff ff e2 	movl   $0x725949e2,-0xa8(%ebp)
  40190f:	49 59 72 
  401912:	c7 85 5c ff ff ff 1e 	movl   $0x1ac43e1e,-0xa4(%ebp)
  401919:	3e c4 1a 
  40191c:	8b 85 58 ff ff ff    	mov    -0xa8(%ebp),%eax
  401922:	8b 8d 5c ff ff ff    	mov    -0xa4(%ebp),%ecx
  401928:	89 85 30 ff ff ff    	mov    %eax,-0xd0(%ebp)
  40192e:	89 8d 34 ff ff ff    	mov    %ecx,-0xcc(%ebp)
  401934:	c7 85 58 ff ff ff 32 	movl   $0x16b51732,-0xa8(%ebp)
  40193b:	17 b5 16 
  40193e:	c7 85 5c ff ff ff fe 	movl   $0x46e026fe,-0xa4(%ebp)
  401945:	26 e0 46 
  401948:	8b 85 58 ff ff ff    	mov    -0xa8(%ebp),%eax
  40194e:	8b 8d 5c ff ff ff    	mov    -0xa4(%ebp),%ecx
  401954:	89 85 38 ff ff ff    	mov    %eax,-0xc8(%ebp)
  40195a:	89 8d 3c ff ff ff    	mov    %ecx,-0xc4(%ebp)
  401960:	c7 85 58 ff ff ff 05 	movl   $0xb641e105,-0xa8(%ebp)
  401967:	e1 41 b6 
  40196a:	c7 85 5c ff ff ff 35 	movl   $0x9c4c4635,-0xa4(%ebp)
  401971:	46 4c 9c 
  401974:	8b 85 58 ff ff ff    	mov    -0xa8(%ebp),%eax
  40197a:	8b 8d 5c ff ff ff    	mov    -0xa4(%ebp),%ecx
  401980:	89 85 60 ff ff ff    	mov    %eax,-0xa0(%ebp)
  401986:	89 8d 64 ff ff ff    	mov    %ecx,-0x9c(%ebp)
  40198c:	c7 85 58 ff ff ff 1a 	movl   $0x7ea3261a,-0xa8(%ebp)
  401993:	26 a3 7e 
  401996:	c7 85 5c ff ff ff d4 	movl   $0x5294c4d4,-0xa4(%ebp)
  40199d:	c4 94 52 
  4019a0:	8b 85 58 ff ff ff    	mov    -0xa8(%ebp),%eax
  4019a6:	8b 8d 5c ff ff ff    	mov    -0xa4(%ebp),%ecx
  4019ac:	89 85 68 ff ff ff    	mov    %eax,-0x98(%ebp)
  4019b2:	89 8d 6c ff ff ff    	mov    %ecx,-0x94(%ebp)
  4019b8:	c7 85 58 ff ff ff 87 	movl   $0x792487,-0xa8(%ebp)
  4019bf:	24 79 00 
  4019c2:	c7 85 5c ff ff ff 77 	movl   $0x6eac5977,-0xa4(%ebp)
  4019c9:	59 ac 6e 
  4019cc:	8b 85 58 ff ff ff    	mov    -0xa8(%ebp),%eax
  4019d2:	8b 8d 5c ff ff ff    	mov    -0xa4(%ebp),%ecx
  4019d8:	89 85 70 ff ff ff    	mov    %eax,-0x90(%ebp)
  4019de:	89 8d 74 ff ff ff    	mov    %ecx,-0x8c(%ebp)
  4019e4:	c7 85 58 ff ff ff 1c 	movl   $0x16b5171c,-0xa8(%ebp)
  4019eb:	17 b5 16 
  4019ee:	c7 85 5c ff ff ff fe 	movl   $0x46e026fe,-0xa4(%ebp)
  4019f5:	26 e0 46 
  4019f8:	8b 85 58 ff ff ff    	mov    -0xa8(%ebp),%eax
  4019fe:	8b 95 5c ff ff ff    	mov    -0xa4(%ebp),%edx
  401a04:	89 95 7c ff ff ff    	mov    %edx,-0x84(%ebp)
  401a0a:	8d 95 20 ff ff ff    	lea    -0xe0(%ebp),%edx
  401a10:	89 85 78 ff ff ff    	mov    %eax,-0x88(%ebp)
  401a16:	c5 fe 6f 85 60 ff ff 	vmovdqu -0xa0(%ebp),%ymm0
  401a1d:	ff 
  401a1e:	c5 fd ef 85 20 ff ff 	vpxor  -0xe0(%ebp),%ymm0,%ymm0
  401a25:	ff 
  401a26:	c5 fd 7f 85 20 ff ff 	vmovdqa %ymm0,-0xe0(%ebp)
  401a2d:	ff 
  401a2e:	8b ce                	mov    %esi,%ecx
  401a30:	c5 f8 77             	vzeroupper
  401a33:	e8 e8 0d 00 00       	call   0x402820
  401a38:	8b 4d fc             	mov    -0x4(%ebp),%ecx
  401a3b:	33 cd                	xor    %ebp,%ecx
  401a3d:	5e                   	pop    %esi
  401a3e:	e8 85 15 00 00       	call   0x402fc8
  401a43:	8b e5                	mov    %ebp,%esp
  401a45:	5d                   	pop    %ebp
  401a46:	8b e3                	mov    %ebx,%esp
  401a48:	5b                   	pop    %ebx
  401a49:	c3                   	ret
  401a4a:	cc                   	int3
  401a4b:	cc                   	int3
  401a4c:	cc                   	int3
  401a4d:	cc                   	int3
  401a4e:	cc                   	int3
  401a4f:	cc                   	int3
  401a50:	53                   	push   %ebx
  401a51:	8b dc                	mov    %esp,%ebx
  401a53:	83 ec 08             	sub    $0x8,%esp
  401a56:	83 e4 e0             	and    $0xffffffe0,%esp
  401a59:	83 c4 04             	add    $0x4,%esp
  401a5c:	55                   	push   %ebp
  401a5d:	8b 6b 04             	mov    0x4(%ebx),%ebp
  401a60:	89 6c 24 04          	mov    %ebp,0x4(%esp)
  401a64:	8b ec                	mov    %esp,%ebp
  401a66:	6a ff                	push   $0xffffffff
  401a68:	68 43 3d 40 00       	push   $0x403d43
  401a6d:	64 a1 00 00 00 00    	mov    %fs:0x0,%eax
  401a73:	50                   	push   %eax
  401a74:	53                   	push   %ebx
  401a75:	81 ec a8 00 00 00    	sub    $0xa8,%esp
  401a7b:	a1 04 70 40 00       	mov    0x407004,%eax
  401a80:	33 c5                	xor    %ebp,%eax
  401a82:	89 45 dc             	mov    %eax,-0x24(%ebp)
  401a85:	56                   	push   %esi
  401a86:	57                   	push   %edi
  401a87:	50                   	push   %eax
  401a88:	8d 45 f4             	lea    -0xc(%ebp),%eax
  401a8b:	64 a3 00 00 00 00    	mov    %eax,%fs:0x0
  401a91:	8d 43 08             	lea    0x8(%ebx),%eax
  401a94:	c7 45 fc 00 00 00 00 	movl   $0x0,-0x4(%ebp)
  401a9b:	50                   	push   %eax
  401a9c:	8d 4d 88             	lea    -0x78(%ebp),%ecx
  401a9f:	e8 7c 0b 00 00       	call   0x402620
  401aa4:	c6 45 fc 01          	movb   $0x1,-0x4(%ebp)
  401aa8:	8d 95 50 ff ff ff    	lea    -0xb0(%ebp),%edx
  401aae:	c6 05 38 74 40 00 00 	movb   $0x0,0x407438
  401ab5:	c7 45 80 56 8c 2e dd 	movl   $0xdd2e8c56,-0x80(%ebp)
  401abc:	c7 45 84 5c 28 2b d5 	movl   $0xd52b285c,-0x7c(%ebp)
  401ac3:	8b 45 80             	mov    -0x80(%ebp),%eax
  401ac6:	8b 4d 84             	mov    -0x7c(%ebp),%ecx
  401ac9:	89 8d 54 ff ff ff    	mov    %ecx,-0xac(%ebp)
  401acf:	89 85 50 ff ff ff    	mov    %eax,-0xb0(%ebp)
  401ad5:	c7 45 80 69 65 cc 11 	movl   $0x11cc6569,-0x80(%ebp)
  401adc:	c7 45 84 b8 c4 94 52 	movl   $0x5294c4b8,-0x7c(%ebp)
  401ae3:	8b 45 80             	mov    -0x80(%ebp),%eax
  401ae6:	8b 4d 84             	mov    -0x7c(%ebp),%ecx
  401ae9:	89 8d 5c ff ff ff    	mov    %ecx,-0xa4(%ebp)
  401aef:	89 85 58 ff ff ff    	mov    %eax,-0xa8(%ebp)
  401af5:	c7 45 80 05 e1 41 b6 	movl   $0xb641e105,-0x80(%ebp)
  401afc:	c7 45 84 35 46 4c 9c 	movl   $0x9c4c4635,-0x7c(%ebp)
  401b03:	8b 45 80             	mov    -0x80(%ebp),%eax
  401b06:	8b 4d 84             	mov    -0x7c(%ebp),%ecx
  401b09:	c7 45 80 1a 26 a3 7e 	movl   $0x7ea3261a,-0x80(%ebp)
  401b10:	89 45 c0             	mov    %eax,-0x40(%ebp)
  401b13:	89 4d c4             	mov    %ecx,-0x3c(%ebp)
  401b16:	c7 45 84 d4 c4 94 52 	movl   $0x5294c4d4,-0x7c(%ebp)
  401b1d:	8b 45 80             	mov    -0x80(%ebp),%eax
  401b20:	8b 4d 84             	mov    -0x7c(%ebp),%ecx
  401b23:	0f 28 8d 50 ff ff ff 	movaps -0xb0(%ebp),%xmm1
  401b2a:	89 4d cc             	mov    %ecx,-0x34(%ebp)
  401b2d:	8d 4a 01             	lea    0x1(%edx),%ecx
  401b30:	89 45 c8             	mov    %eax,-0x38(%ebp)
  401b33:	66 0f ef 4d c0       	pxor   -0x40(%ebp),%xmm1
  401b38:	0f 29 8d 50 ff ff ff 	movaps %xmm1,-0xb0(%ebp)
  401b3f:	90                   	nop
  401b40:	8a 02                	mov    (%edx),%al
  401b42:	42                   	inc    %edx
  401b43:	84 c0                	test   %al,%al
  401b45:	75 f9                	jne    0x401b40
  401b47:	8b 75 98             	mov    -0x68(%ebp),%esi
  401b4a:	2b d1                	sub    %ecx,%edx
  401b4c:	83 7d 9c 10          	cmpl   $0x10,-0x64(%ebp)
  401b50:	8d 4d 88             	lea    -0x78(%ebp),%ecx
  401b53:	0f 43 4d 88          	cmovae -0x78(%ebp),%ecx
  401b57:	3b f2                	cmp    %edx,%esi
  401b59:	0f 85 de 01 00 00    	jne    0x401d3d
  401b5f:	8d 95 50 ff ff ff    	lea    -0xb0(%ebp),%edx
  401b65:	83 ee 04             	sub    $0x4,%esi
  401b68:	72 17                	jb     0x401b81
  401b6a:	66 0f 1f 44 00 00    	nopw   0x0(%eax,%eax,1)
  401b70:	8b 01                	mov    (%ecx),%eax
  401b72:	3b 02                	cmp    (%edx),%eax
  401b74:	75 10                	jne    0x401b86
  401b76:	83 c1 04             	add    $0x4,%ecx
  401b79:	83 c2 04             	add    $0x4,%edx
  401b7c:	83 ee 04             	sub    $0x4,%esi
  401b7f:	73 ef                	jae    0x401b70
  401b81:	83 fe fc             	cmp    $0xfffffffc,%esi
  401b84:	74 34                	je     0x401bba
  401b86:	8a 01                	mov    (%ecx),%al
  401b88:	3a 02                	cmp    (%edx),%al
  401b8a:	75 27                	jne    0x401bb3
  401b8c:	83 fe fd             	cmp    $0xfffffffd,%esi
  401b8f:	74 29                	je     0x401bba
  401b91:	8a 41 01             	mov    0x1(%ecx),%al
  401b94:	3a 42 01             	cmp    0x1(%edx),%al
  401b97:	75 1a                	jne    0x401bb3
  401b99:	83 fe fe             	cmp    $0xfffffffe,%esi
  401b9c:	74 1c                	je     0x401bba
  401b9e:	8a 41 02             	mov    0x2(%ecx),%al
  401ba1:	3a 42 02             	cmp    0x2(%edx),%al
  401ba4:	75 0d                	jne    0x401bb3
  401ba6:	83 fe ff             	cmp    $0xffffffff,%esi
  401ba9:	74 0f                	je     0x401bba
  401bab:	8a 41 03             	mov    0x3(%ecx),%al
  401bae:	3a 42 03             	cmp    0x3(%edx),%al
  401bb1:	74 07                	je     0x401bba
  401bb3:	1b c0                	sbb    %eax,%eax
  401bb5:	83 c8 01             	or     $0x1,%eax
  401bb8:	eb 02                	jmp    0x401bbc
  401bba:	33 c0                	xor    %eax,%eax
  401bbc:	85 c0                	test   %eax,%eax
  401bbe:	0f 85 79 01 00 00    	jne    0x401d3d
  401bc4:	38 05 3d 74 40 00    	cmp    %al,0x40743d
  401bca:	0f 85 6d 01 00 00    	jne    0x401d3d
  401bd0:	8d 45 88             	lea    -0x78(%ebp),%eax
  401bd3:	c6 05 3d 74 40 00 01 	movb   $0x1,0x40743d
  401bda:	50                   	push   %eax
  401bdb:	8d 8d 68 ff ff ff    	lea    -0x98(%ebp),%ecx
  401be1:	e8 3a 0a 00 00       	call   0x402620
  401be6:	c6 45 fc 02          	movb   $0x2,-0x4(%ebp)
  401bea:	8d 8d 68 ff ff ff    	lea    -0x98(%ebp),%ecx
  401bf0:	83 bd 7c ff ff ff 10 	cmpl   $0x10,-0x84(%ebp)
  401bf7:	8d 95 68 ff ff ff    	lea    -0x98(%ebp),%edx
  401bfd:	8b bd 68 ff ff ff    	mov    -0x98(%ebp),%edi
  401c03:	8b b5 78 ff ff ff    	mov    -0x88(%ebp),%esi
  401c09:	0f 43 cf             	cmovae %edi,%ecx
  401c0c:	0f 43 d7             	cmovae %edi,%edx
  401c0f:	83 ee 04             	sub    $0x4,%esi
  401c12:	72 11                	jb     0x401c25
  401c14:	8b 02                	mov    (%edx),%eax
  401c16:	3b 01                	cmp    (%ecx),%eax
  401c18:	75 10                	jne    0x401c2a
  401c1a:	83 c2 04             	add    $0x4,%edx
  401c1d:	83 c1 04             	add    $0x4,%ecx
  401c20:	83 ee 04             	sub    $0x4,%esi
  401c23:	73 ef                	jae    0x401c14
  401c25:	83 fe fc             	cmp    $0xfffffffc,%esi
  401c28:	74 34                	je     0x401c5e
  401c2a:	8a 02                	mov    (%edx),%al
  401c2c:	3a 01                	cmp    (%ecx),%al
  401c2e:	75 27                	jne    0x401c57
  401c30:	83 fe fd             	cmp    $0xfffffffd,%esi
  401c33:	74 29                	je     0x401c5e
  401c35:	8a 42 01             	mov    0x1(%edx),%al
  401c38:	3a 41 01             	cmp    0x1(%ecx),%al
  401c3b:	75 1a                	jne    0x401c57
  401c3d:	83 fe fe             	cmp    $0xfffffffe,%esi
  401c40:	74 1c                	je     0x401c5e
  401c42:	8a 42 02             	mov    0x2(%edx),%al
  401c45:	3a 41 02             	cmp    0x2(%ecx),%al
  401c48:	75 0d                	jne    0x401c57
  401c4a:	83 fe ff             	cmp    $0xffffffff,%esi
  401c4d:	74 0f                	je     0x401c5e
  401c4f:	8a 42 03             	mov    0x3(%edx),%al
  401c52:	3a 41 03             	cmp    0x3(%ecx),%al
  401c55:	74 07                	je     0x401c5e
  401c57:	1b c0                	sbb    %eax,%eax
  401c59:	83 c8 01             	or     $0x1,%eax
  401c5c:	eb 02                	jmp    0x401c60
  401c5e:	33 c0                	xor    %eax,%eax
  401c60:	85 c0                	test   %eax,%eax
  401c62:	75 1d                	jne    0x401c81
  401c64:	38 05 39 74 40 00    	cmp    %al,0x407439
  401c6a:	a2 3c 74 40 00       	mov    %al,0x40743c
  401c6f:	0f 94 05 39 74 40 00 	sete   0x407439
  401c76:	e8 55 f8 ff ff       	call   0x4014d0
  401c7b:	8b bd 68 ff ff ff    	mov    -0x98(%ebp),%edi
  401c81:	8b 85 7c ff ff ff    	mov    -0x84(%ebp),%eax
  401c87:	83 f8 10             	cmp    $0x10,%eax
  401c8a:	72 2d                	jb     0x401cb9
  401c8c:	8d 48 01             	lea    0x1(%eax),%ecx
  401c8f:	8b c7                	mov    %edi,%eax
  401c91:	81 f9 00 10 00 00    	cmp    $0x1000,%ecx
  401c97:	72 16                	jb     0x401caf
  401c99:	8b 78 fc             	mov    -0x4(%eax),%edi
  401c9c:	83 c1 23             	add    $0x23,%ecx
  401c9f:	2b c7                	sub    %edi,%eax
  401ca1:	83 c0 fc             	add    $0xfffffffc,%eax
  401ca4:	83 f8 1f             	cmp    $0x1f,%eax
  401ca7:	76 06                	jbe    0x401caf
  401ca9:	ff 15 18 51 40 00    	call   *0x405118
  401caf:	51                   	push   %ecx
  401cb0:	57                   	push   %edi
  401cb1:	e8 a1 15 00 00       	call   0x403257
  401cb6:	83 c4 08             	add    $0x8,%esp
  401cb9:	8b 4d 9c             	mov    -0x64(%ebp),%ecx
  401cbc:	83 f9 10             	cmp    $0x10,%ecx
  401cbf:	72 28                	jb     0x401ce9
  401cc1:	8b 55 88             	mov    -0x78(%ebp),%edx
  401cc4:	41                   	inc    %ecx
  401cc5:	8b c2                	mov    %edx,%eax
  401cc7:	81 f9 00 10 00 00    	cmp    $0x1000,%ecx
  401ccd:	72 10                	jb     0x401cdf
  401ccf:	8b 50 fc             	mov    -0x4(%eax),%edx
  401cd2:	83 c1 23             	add    $0x23,%ecx
  401cd5:	2b c2                	sub    %edx,%eax
  401cd7:	83 c0 fc             	add    $0xfffffffc,%eax
  401cda:	83 f8 1f             	cmp    $0x1f,%eax
  401cdd:	77 30                	ja     0x401d0f
  401cdf:	51                   	push   %ecx
  401ce0:	52                   	push   %edx
  401ce1:	e8 71 15 00 00       	call   0x403257
  401ce6:	83 c4 08             	add    $0x8,%esp
  401ce9:	8b 4b 1c             	mov    0x1c(%ebx),%ecx
  401cec:	83 f9 10             	cmp    $0x10,%ecx
  401cef:	72 2e                	jb     0x401d1f
  401cf1:	8b 53 08             	mov    0x8(%ebx),%edx
  401cf4:	41                   	inc    %ecx
  401cf5:	8b c2                	mov    %edx,%eax
  401cf7:	81 f9 00 10 00 00    	cmp    $0x1000,%ecx
  401cfd:	72 16                	jb     0x401d15
  401cff:	8b 50 fc             	mov    -0x4(%eax),%edx
  401d02:	83 c1 23             	add    $0x23,%ecx
  401d05:	2b c2                	sub    %edx,%eax
  401d07:	83 c0 fc             	add    $0xfffffffc,%eax
  401d0a:	83 f8 1f             	cmp    $0x1f,%eax
  401d0d:	76 06                	jbe    0x401d15
  401d0f:	ff 15 18 51 40 00    	call   *0x405118
  401d15:	51                   	push   %ecx
  401d16:	52                   	push   %edx
  401d17:	e8 3b 15 00 00       	call   0x403257
  401d1c:	83 c4 08             	add    $0x8,%esp
  401d1f:	8b 4d f4             	mov    -0xc(%ebp),%ecx
  401d22:	64 89 0d 00 00 00 00 	mov    %ecx,%fs:0x0
  401d29:	59                   	pop    %ecx
  401d2a:	5f                   	pop    %edi
  401d2b:	5e                   	pop    %esi
  401d2c:	8b 4d dc             	mov    -0x24(%ebp),%ecx
  401d2f:	33 cd                	xor    %ebp,%ecx
  401d31:	e8 92 12 00 00       	call   0x402fc8
  401d36:	8b e5                	mov    %ebp,%esp
  401d38:	5d                   	pop    %ebp
  401d39:	8b e3                	mov    %ebx,%esp
  401d3b:	5b                   	pop    %ebx
  401d3c:	c3                   	ret
  401d3d:	8b 35 78 50 40 00    	mov    0x405078,%esi
  401d43:	c7 45 80 0f eb 0e de 	movl   $0xde0eeb0f,-0x80(%ebp)
  401d4a:	c7 45 84 15 28 23 bc 	movl   $0xbc232815,-0x7c(%ebp)
  401d51:	8b 45 80             	mov    -0x80(%ebp),%eax
  401d54:	8b 4d 84             	mov    -0x7c(%ebp),%ecx
  401d57:	89 85 60 ff ff ff    	mov    %eax,-0xa0(%ebp)
  401d5d:	89 8d 64 ff ff ff    	mov    %ecx,-0x9c(%ebp)
  401d63:	c7 45 80 6e 4e c2 0a 	movl   $0xac24e6e,-0x80(%ebp)
  401d6a:	c7 45 84 f4 a5 fd 3c 	movl   $0x3cfda5f4,-0x7c(%ebp)
  401d71:	8b 45 80             	mov    -0x80(%ebp),%eax
  401d74:	8b 4d 84             	mov    -0x7c(%ebp),%ecx
  401d77:	89 85 68 ff ff ff    	mov    %eax,-0x98(%ebp)
  401d7d:	89 8d 6c ff ff ff    	mov    %ecx,-0x94(%ebp)
  401d83:	c7 45 80 f3 04 1a 6f 	movl   $0x6f1a04f3,-0x80(%ebp)
  401d8a:	c7 45 84 05 2b c9 0d 	movl   $0xdc92b05,-0x7c(%ebp)
  401d91:	8b 45 80             	mov    -0x80(%ebp),%eax
  401d94:	8b 4d 84             	mov    -0x7c(%ebp),%ecx
  401d97:	89 85 70 ff ff ff    	mov    %eax,-0x90(%ebp)
  401d9d:	89 8d 74 ff ff ff    	mov    %ecx,-0x8c(%ebp)
  401da3:	c7 45 80 68 39 b5 16 	movl   $0x16b53968,-0x80(%ebp)
  401daa:	c7 45 84 fe 26 e0 46 	movl   $0x46e026fe,-0x7c(%ebp)
  401db1:	8b 45 80             	mov    -0x80(%ebp),%eax
  401db4:	8b 4d 84             	mov    -0x7c(%ebp),%ecx
  401db7:	89 85 78 ff ff ff    	mov    %eax,-0x88(%ebp)
  401dbd:	89 8d 7c ff ff ff    	mov    %ecx,-0x84(%ebp)
  401dc3:	c7 45 80 05 e1 41 b6 	movl   $0xb641e105,-0x80(%ebp)
  401dca:	c7 45 84 35 46 4c 9c 	movl   $0x9c4c4635,-0x7c(%ebp)
  401dd1:	8b 45 80             	mov    -0x80(%ebp),%eax
  401dd4:	8b 4d 84             	mov    -0x7c(%ebp),%ecx
  401dd7:	89 45 a0             	mov    %eax,-0x60(%ebp)
  401dda:	89 4d a4             	mov    %ecx,-0x5c(%ebp)
  401ddd:	c7 45 80 1a 26 a3 7e 	movl   $0x7ea3261a,-0x80(%ebp)
  401de4:	c7 45 84 d4 c4 94 52 	movl   $0x5294c4d4,-0x7c(%ebp)
  401deb:	8b 45 80             	mov    -0x80(%ebp),%eax
  401dee:	8b 4d 84             	mov    -0x7c(%ebp),%ecx
  401df1:	89 45 a8             	mov    %eax,-0x58(%ebp)
  401df4:	89 4d ac             	mov    %ecx,-0x54(%ebp)
  401df7:	c7 45 80 87 24 79 00 	movl   $0x792487,-0x80(%ebp)
  401dfe:	c7 45 84 77 59 ac 6e 	movl   $0x6eac5977,-0x7c(%ebp)
  401e05:	8b 45 80             	mov    -0x80(%ebp),%eax
  401e08:	8b 4d 84             	mov    -0x7c(%ebp),%ecx
  401e0b:	89 45 b0             	mov    %eax,-0x50(%ebp)
  401e0e:	89 4d b4             	mov    %ecx,-0x4c(%ebp)
  401e11:	8b ce                	mov    %esi,%ecx
  401e13:	c7 45 80 1c 17 b5 16 	movl   $0x16b5171c,-0x80(%ebp)
  401e1a:	c7 45 84 fe 26 e0 46 	movl   $0x46e026fe,-0x7c(%ebp)
  401e21:	8b 45 80             	mov    -0x80(%ebp),%eax
  401e24:	8b 55 84             	mov    -0x7c(%ebp),%edx
  401e27:	89 55 bc             	mov    %edx,-0x44(%ebp)
  401e2a:	8d 95 60 ff ff ff    	lea    -0xa0(%ebp),%edx
  401e30:	89 45 b8             	mov    %eax,-0x48(%ebp)
  401e33:	c5 fe 6f 45 a0       	vmovdqu -0x60(%ebp),%ymm0
  401e38:	c5 fd ef 85 60 ff ff 	vpxor  -0xa0(%ebp),%ymm0,%ymm0
  401e3f:	ff 
  401e40:	c5 fd 7f 85 60 ff ff 	vmovdqa %ymm0,-0xa0(%ebp)
  401e47:	ff 
  401e48:	c5 f8 77             	vzeroupper
  401e4b:	e8 d0 09 00 00       	call   0x402820
  401e50:	68 ac 0d 00 00       	push   $0xdac
  401e55:	ff 15 00 50 40 00    	call   *0x405000
  401e5b:	6a 45                	push   $0x45
  401e5d:	ff 15 00 51 40 00    	call   *0x405100
  401e63:	cc                   	int3
  401e64:	cc                   	int3
  401e65:	cc                   	int3
  401e66:	cc                   	int3
  401e67:	cc                   	int3
  401e68:	cc                   	int3
  401e69:	cc                   	int3
  401e6a:	cc                   	int3
  401e6b:	cc                   	int3
  401e6c:	cc                   	int3
  401e6d:	cc                   	int3
  401e6e:	cc                   	int3
  401e6f:	cc                   	int3
  401e70:	53                   	push   %ebx
  401e71:	8b dc                	mov    %esp,%ebx
  401e73:	83 ec 08             	sub    $0x8,%esp
  401e76:	83 e4 e0             	and    $0xffffffe0,%esp
  401e79:	83 c4 04             	add    $0x4,%esp
  401e7c:	55                   	push   %ebp
  401e7d:	8b 6b 04             	mov    0x4(%ebx),%ebp
  401e80:	89 6c 24 04          	mov    %ebp,0x4(%esp)
  401e84:	8b ec                	mov    %esp,%ebp
  401e86:	6a ff                	push   $0xffffffff
  401e88:	68 8b 3d 40 00       	push   $0x403d8b
  401e8d:	64 a1 00 00 00 00    	mov    %fs:0x0,%eax
  401e93:	50                   	push   %eax
  401e94:	53                   	push   %ebx
  401e95:	81 ec 4c 01 00 00    	sub    $0x14c,%esp
  401e9b:	a1 04 70 40 00       	mov    0x407004,%eax
  401ea0:	33 c5                	xor    %ebp,%eax
  401ea2:	89 45 dc             	mov    %eax,-0x24(%ebp)
  401ea5:	56                   	push   %esi
  401ea6:	50                   	push   %eax
  401ea7:	8d 45 f4             	lea    -0xc(%ebp),%eax
  401eaa:	64 a3 00 00 00 00    	mov    %eax,%fs:0x0
  401eb0:	6a 04                	push   $0x4
  401eb2:	e8 1f 11 00 00       	call   0x402fd6
  401eb7:	83 c4 04             	add    $0x4,%esp
  401eba:	89 85 3c ff ff ff    	mov    %eax,-0xc4(%ebp)
  401ec0:	c7 00 a0 14 40 00    	movl   $0x4014a0,(%eax)
  401ec6:	8d 8d 34 ff ff ff    	lea    -0xcc(%ebp),%ecx
  401ecc:	c7 45 fc 00 00 00 00 	movl   $0x0,-0x4(%ebp)
  401ed3:	51                   	push   %ecx
  401ed4:	6a 00                	push   $0x0
  401ed6:	50                   	push   %eax
  401ed7:	68 f0 2e 40 00       	push   $0x402ef0
  401edc:	6a 00                	push   $0x0
  401ede:	6a 00                	push   $0x0
  401ee0:	ff 15 0c 51 40 00    	call   *0x40510c
  401ee6:	83 c4 18             	add    $0x18,%esp
  401ee9:	89 85 30 ff ff ff    	mov    %eax,-0xd0(%ebp)
  401eef:	85 c0                	test   %eax,%eax
  401ef1:	0f 84 aa 05 00 00    	je     0x4024a1
  401ef7:	c7 85 3c ff ff ff 00 	movl   $0x0,-0xc4(%ebp)
  401efe:	00 00 00 
  401f01:	c7 45 fc 01 00 00 00 	movl   $0x1,-0x4(%ebp)
  401f08:	8b 8d 34 ff ff ff    	mov    -0xcc(%ebp),%ecx
  401f0e:	85 c9                	test   %ecx,%ecx
  401f10:	75 08                	jne    0x401f1a
  401f12:	6a 01                	push   $0x1
  401f14:	ff 15 74 50 40 00    	call   *0x405074
  401f1a:	51                   	push   %ecx
  401f1b:	50                   	push   %eax
  401f1c:	ff 15 68 50 40 00    	call   *0x405068
  401f22:	83 c4 08             	add    $0x8,%esp
  401f25:	85 c0                	test   %eax,%eax
  401f27:	74 07                	je     0x401f30
  401f29:	50                   	push   %eax
  401f2a:	ff 15 88 50 40 00    	call   *0x405088
  401f30:	0f 57 c0             	xorps  %xmm0,%xmm0
  401f33:	c7 45 fc ff ff ff ff 	movl   $0xffffffff,-0x4(%ebp)
  401f3a:	8b 0d 78 50 40 00    	mov    0x405078,%ecx
  401f40:	ba d0 52 40 00       	mov    $0x4052d0,%edx
  401f45:	66 0f 13 85 30 ff ff 	movlpd %xmm0,-0xd0(%ebp)
  401f4c:	ff 
  401f4d:	e8 ce 08 00 00       	call   0x402820
  401f52:	8b 0d 78 50 40 00    	mov    0x405078,%ecx
  401f58:	ba fc 52 40 00       	mov    $0x4052fc,%edx
  401f5d:	e8 be 08 00 00       	call   0x402820
  401f62:	8b 0d 84 50 40 00    	mov    0x405084,%ecx
  401f68:	e8 d3 0a 00 00       	call   0x402a40
  401f6d:	83 ec 18             	sub    $0x18,%esp
  401f70:	8b cc                	mov    %esp,%ecx
  401f72:	68 18 70 40 00       	push   $0x407018
  401f77:	e8 a4 06 00 00       	call   0x402620
  401f7c:	e8 cf fa ff ff       	call   0x401a50
  401f81:	83 c4 18             	add    $0x18,%esp
  401f84:	80 3d 3b 74 40 00 00 	cmpb   $0x0,0x40743b
  401f8b:	0f 85 32 01 00 00    	jne    0x4020c3
  401f91:	c7 85 30 ff ff ff 0f 	movl   $0xde0eeb0f,-0xd0(%ebp)
  401f98:	eb 0e de 
  401f9b:	c7 85 34 ff ff ff 15 	movl   $0xbc232815,-0xcc(%ebp)
  401fa2:	28 23 bc 
  401fa5:	8b 85 30 ff ff ff    	mov    -0xd0(%ebp),%eax
  401fab:	8b 8d 34 ff ff ff    	mov    -0xcc(%ebp),%ecx
  401fb1:	89 45 a0             	mov    %eax,-0x60(%ebp)
  401fb4:	89 4d a4             	mov    %ecx,-0x5c(%ebp)
  401fb7:	c7 85 30 ff ff ff 6e 	movl   $0xac24e6e,-0xd0(%ebp)
  401fbe:	4e c2 0a 
  401fc1:	c7 85 34 ff ff ff a7 	movl   $0x3ae0e4a7,-0xcc(%ebp)
  401fc8:	e4 e0 3a 
  401fcb:	8b 85 30 ff ff ff    	mov    -0xd0(%ebp),%eax
  401fd1:	8b 8d 34 ff ff ff    	mov    -0xcc(%ebp),%ecx
  401fd7:	89 45 a8             	mov    %eax,-0x58(%ebp)
  401fda:	89 4d ac             	mov    %ecx,-0x54(%ebp)
  401fdd:	c7 85 30 ff ff ff e2 	movl   $0x720e04e2,-0xd0(%ebp)
  401fe4:	04 0e 72 
  401fe7:	c7 85 34 ff ff ff 18 	movl   $0x4ecb3718,-0xcc(%ebp)
  401fee:	37 cb 4e 
  401ff1:	8b 85 30 ff ff ff    	mov    -0xd0(%ebp),%eax
  401ff7:	8b 8d 34 ff ff ff    	mov    -0xcc(%ebp),%ecx
  401ffd:	89 45 b0             	mov    %eax,-0x50(%ebp)
  402000:	89 4d b4             	mov    %ecx,-0x4c(%ebp)
  402003:	c7 85 30 ff ff ff 77 	movl   $0x38cc7277,-0xd0(%ebp)
  40200a:	72 cc 38 
  40200d:	c7 85 34 ff ff ff fe 	movl   $0x46e026fe,-0xcc(%ebp)
  402014:	26 e0 46 
  402017:	8b 85 30 ff ff ff    	mov    -0xd0(%ebp),%eax
  40201d:	8b 8d 34 ff ff ff    	mov    -0xcc(%ebp),%ecx
  402023:	89 45 b8             	mov    %eax,-0x48(%ebp)
  402026:	89 4d bc             	mov    %ecx,-0x44(%ebp)
  402029:	c7 85 30 ff ff ff 05 	movl   $0xb641e105,-0xd0(%ebp)
  402030:	e1 41 b6 
  402033:	c7 85 34 ff ff ff 35 	movl   $0x9c4c4635,-0xcc(%ebp)
  40203a:	46 4c 9c 
  40203d:	8b 85 30 ff ff ff    	mov    -0xd0(%ebp),%eax
  402043:	8b 8d 34 ff ff ff    	mov    -0xcc(%ebp),%ecx
  402049:	89 45 a0             	mov    %eax,-0x60(%ebp)
  40204c:	89 4d a4             	mov    %ecx,-0x5c(%ebp)
  40204f:	c7 85 30 ff ff ff 1a 	movl   $0x7ea3261a,-0xd0(%ebp)
  402056:	26 a3 7e 
  402059:	c7 85 34 ff ff ff d4 	movl   $0x5294c4d4,-0xcc(%ebp)
  402060:	c4 94 52 
  402063:	8b 85 30 ff ff ff    	mov    -0xd0(%ebp),%eax
  402069:	8b 8d 34 ff ff ff    	mov    -0xcc(%ebp),%ecx
  40206f:	89 45 a8             	mov    %eax,-0x58(%ebp)
  402072:	89 4d ac             	mov    %ecx,-0x54(%ebp)
  402075:	c7 85 30 ff ff ff 87 	movl   $0x792487,-0xd0(%ebp)
  40207c:	24 79 00 
  40207f:	c7 85 34 ff ff ff 77 	movl   $0x6eac5977,-0xcc(%ebp)
  402086:	59 ac 6e 
  402089:	8b 85 30 ff ff ff    	mov    -0xd0(%ebp),%eax
  40208f:	8b 8d 34 ff ff ff    	mov    -0xcc(%ebp),%ecx
  402095:	89 45 b0             	mov    %eax,-0x50(%ebp)
  402098:	89 4d b4             	mov    %ecx,-0x4c(%ebp)
  40209b:	c7 85 30 ff ff ff 1c 	movl   $0x16b5171c,-0xd0(%ebp)
  4020a2:	17 b5 16 
  4020a5:	c7 85 34 ff ff ff fe 	movl   $0x46e026fe,-0xcc(%ebp)
  4020ac:	26 e0 46 
  4020af:	8b 85 30 ff ff ff    	mov    -0xd0(%ebp),%eax
  4020b5:	8b 8d 34 ff ff ff    	mov    -0xcc(%ebp),%ecx
  4020bb:	6a 45                	push   $0x45
  4020bd:	ff 15 00 51 40 00    	call   *0x405100
  4020c3:	8b 35 78 50 40 00    	mov    0x405078,%esi
  4020c9:	c7 85 30 ff ff ff 0f 	movl   $0xdf05eb0f,-0xd0(%ebp)
  4020d0:	eb 05 df 
  4020d3:	c7 85 34 ff ff ff 51 	movl   $0xf3356651,-0xcc(%ebp)
  4020da:	66 35 f3 
  4020dd:	8b 85 30 ff ff ff    	mov    -0xd0(%ebp),%eax
  4020e3:	8b 8d 34 ff ff ff    	mov    -0xcc(%ebp),%ecx
  4020e9:	89 85 c0 fe ff ff    	mov    %eax,-0x140(%ebp)
  4020ef:	89 8d c4 fe ff ff    	mov    %ecx,-0x13c(%ebp)
  4020f5:	c7 85 30 ff ff ff 6f 	movl   $0x10c8066f,-0xd0(%ebp)
  4020fc:	06 c8 10 
  4020ff:	c7 85 34 ff ff ff bb 	movl   $0x26b4b3bb,-0xcc(%ebp)
  402106:	b3 b4 26 
  402109:	8b 85 30 ff ff ff    	mov    -0xd0(%ebp),%eax
  40210f:	8b 8d 34 ff ff ff    	mov    -0xcc(%ebp),%ecx
  402115:	89 85 c8 fe ff ff    	mov    %eax,-0x138(%ebp)
  40211b:	89 8d cc fe ff ff    	mov    %ecx,-0x134(%ebp)
  402121:	c7 85 30 ff ff ff ef 	movl   $0x200d45ef,-0xd0(%ebp)
  402128:	45 0d 20 
  40212b:	c7 85 34 ff ff ff 18 	movl   $0x4ec93718,-0xcc(%ebp)
  402132:	37 c9 4e 
  402135:	8b 85 30 ff ff ff    	mov    -0xd0(%ebp),%eax
  40213b:	8b 8d 34 ff ff ff    	mov    -0xcc(%ebp),%ecx
  402141:	89 85 d0 fe ff ff    	mov    %eax,-0x130(%ebp)
  402147:	89 8d d4 fe ff ff    	mov    %ecx,-0x12c(%ebp)
  40214d:	c7 85 30 ff ff ff 73 	movl   $0x7b957173,-0xd0(%ebp)
  402154:	71 95 7b 
  402157:	c7 85 34 ff ff ff 87 	movl   $0x27860687,-0xcc(%ebp)
  40215e:	06 86 27 
  402161:	8b 85 30 ff ff ff    	mov    -0xd0(%ebp),%eax
  402167:	8b 8d 34 ff ff ff    	mov    -0xcc(%ebp),%ecx
  40216d:	89 85 d8 fe ff ff    	mov    %eax,-0x128(%ebp)
  402173:	89 8d dc fe ff ff    	mov    %ecx,-0x124(%ebp)
  402179:	c7 85 30 ff ff ff 7f 	movl   $0xef0be17f,-0xd0(%ebp)
  402180:	e1 0b ef 
  402183:	c7 85 34 ff ff ff 90 	movl   $0xadc0c590,-0xcc(%ebp)
  40218a:	c5 c0 ad 
  40218d:	8b 85 30 ff ff ff    	mov    -0xd0(%ebp),%eax
  402193:	8b 8d 34 ff ff ff    	mov    -0xcc(%ebp),%ecx
  402199:	89 85 e0 fe ff ff    	mov    %eax,-0x120(%ebp)
  40219f:	89 8d e4 fe ff ff    	mov    %ecx,-0x11c(%ebp)
  4021a5:	c7 85 30 ff ff ff bd 	movl   $0xf562a5bd,-0xd0(%ebp)
  4021ac:	a5 62 f5 
  4021af:	c7 85 34 ff ff ff 4b 	movl   $0x647a794b,-0xcc(%ebp)
  4021b6:	79 7a 64 
  4021b9:	8b 85 30 ff ff ff    	mov    -0xd0(%ebp),%eax
  4021bf:	8b 8d 34 ff ff ff    	mov    -0xcc(%ebp),%ecx
  4021c5:	89 85 e8 fe ff ff    	mov    %eax,-0x118(%ebp)
  4021cb:	89 8d ec fe ff ff    	mov    %ecx,-0x114(%ebp)
  4021d1:	c7 85 30 ff ff ff ab 	movl   $0x391e48ab,-0xd0(%ebp)
  4021d8:	48 1e 39 
  4021db:	c7 85 34 ff ff ff 53 	movl   $0x48f55553,-0xcc(%ebp)
  4021e2:	55 f5 48 
  4021e5:	8b 85 30 ff ff ff    	mov    -0xd0(%ebp),%eax
  4021eb:	8b 8d 34 ff ff ff    	mov    -0xcc(%ebp),%ecx
  4021f1:	89 85 f0 fe ff ff    	mov    %eax,-0x110(%ebp)
  4021f7:	89 8d f4 fe ff ff    	mov    %ecx,-0x10c(%ebp)
  4021fd:	c7 85 30 ff ff ff 21 	movl   $0x30b12021,-0xd0(%ebp)
  402204:	20 b1 30 
  402207:	c7 85 34 ff ff ff a2 	movl   $0x662aea2,-0xcc(%ebp)
  40220e:	ae 62 06 
  402211:	8b 85 30 ff ff ff    	mov    -0xd0(%ebp),%eax
  402217:	8b 8d 34 ff ff ff    	mov    -0xcc(%ebp),%ecx
  40221d:	89 85 f8 fe ff ff    	mov    %eax,-0x108(%ebp)
  402223:	89 8d fc fe ff ff    	mov    %ecx,-0x104(%ebp)
  402229:	c7 85 30 ff ff ff a0 	movl   $0xcfa2a0a0,-0xd0(%ebp)
  402230:	a0 a2 cf 
  402233:	c7 85 34 ff ff ff 9a 	movl   $0x1529369a,-0xcc(%ebp)
  40223a:	36 29 15 
  40223d:	8b 85 30 ff ff ff    	mov    -0xd0(%ebp),%eax
  402243:	8b 8d 34 ff ff ff    	mov    -0xcc(%ebp),%ecx
  402249:	89 85 00 ff ff ff    	mov    %eax,-0x100(%ebp)
  40224f:	89 8d 04 ff ff ff    	mov    %ecx,-0xfc(%ebp)
  402255:	c7 85 30 ff ff ff 42 	movl   $0x5324c742,-0xd0(%ebp)
  40225c:	c7 24 53 
  40225f:	c7 85 34 ff ff ff 0c 	movl   $0xbd4a540c,-0xcc(%ebp)
  402266:	54 4a bd 
  402269:	8b 85 30 ff ff ff    	mov    -0xd0(%ebp),%eax
  40226f:	8b 8d 34 ff ff ff    	mov    -0xcc(%ebp),%ecx
  402275:	89 85 08 ff ff ff    	mov    %eax,-0xf8(%ebp)
  40227b:	89 8d 0c ff ff ff    	mov    %ecx,-0xf4(%ebp)
  402281:	c7 85 30 ff ff ff 05 	movl   $0xb641e105,-0xd0(%ebp)
  402288:	e1 41 b6 
  40228b:	c7 85 34 ff ff ff 35 	movl   $0x9c4c4635,-0xcc(%ebp)
  402292:	46 4c 9c 
  402295:	8b 85 30 ff ff ff    	mov    -0xd0(%ebp),%eax
  40229b:	8b 8d 34 ff ff ff    	mov    -0xcc(%ebp),%ecx
  4022a1:	89 85 40 ff ff ff    	mov    %eax,-0xc0(%ebp)
  4022a7:	89 8d 44 ff ff ff    	mov    %ecx,-0xbc(%ebp)
  4022ad:	c7 85 30 ff ff ff 1a 	movl   $0x7ea3261a,-0xd0(%ebp)
  4022b4:	26 a3 7e 
  4022b7:	c7 85 34 ff ff ff d4 	movl   $0x5294c4d4,-0xcc(%ebp)
  4022be:	c4 94 52 
  4022c1:	8b 85 30 ff ff ff    	mov    -0xd0(%ebp),%eax
  4022c7:	8b 8d 34 ff ff ff    	mov    -0xcc(%ebp),%ecx
  4022cd:	89 85 48 ff ff ff    	mov    %eax,-0xb8(%ebp)
  4022d3:	89 8d 4c ff ff ff    	mov    %ecx,-0xb4(%ebp)
  4022d9:	c7 85 30 ff ff ff 87 	movl   $0x792487,-0xd0(%ebp)
  4022e0:	24 79 00 
  4022e3:	c7 85 34 ff ff ff 77 	movl   $0x6eac5977,-0xcc(%ebp)
  4022ea:	59 ac 6e 
  4022ed:	8b 85 30 ff ff ff    	mov    -0xd0(%ebp),%eax
  4022f3:	8b 8d 34 ff ff ff    	mov    -0xcc(%ebp),%ecx
  4022f9:	89 85 50 ff ff ff    	mov    %eax,-0xb0(%ebp)
  4022ff:	89 8d 54 ff ff ff    	mov    %ecx,-0xac(%ebp)
  402305:	c7 85 30 ff ff ff 1c 	movl   $0x16b5171c,-0xd0(%ebp)
  40230c:	17 b5 16 
  40230f:	c7 85 34 ff ff ff fe 	movl   $0x46e026fe,-0xcc(%ebp)
  402316:	26 e0 46 
  402319:	8b 85 30 ff ff ff    	mov    -0xd0(%ebp),%eax
  40231f:	8d 95 c0 fe ff ff    	lea    -0x140(%ebp),%edx
  402325:	8b 8d 34 ff ff ff    	mov    -0xcc(%ebp),%ecx
  40232b:	89 8d 5c ff ff ff    	mov    %ecx,-0xa4(%ebp)
  402331:	89 85 58 ff ff ff    	mov    %eax,-0xa8(%ebp)
  402337:	c7 85 30 ff ff ff 09 	movl   $0x9d7e8e09,-0xd0(%ebp)
  40233e:	8e 7e 9d 
  402341:	c7 85 34 ff ff ff f9 	movl   $0x8da5b1f9,-0xcc(%ebp)
  402348:	b1 a5 8d 
  40234b:	8b 85 30 ff ff ff    	mov    -0xd0(%ebp),%eax
  402351:	8b 8d 34 ff ff ff    	mov    -0xcc(%ebp),%ecx
  402357:	89 8d 64 ff ff ff    	mov    %ecx,-0x9c(%ebp)
  40235d:	89 85 60 ff ff ff    	mov    %eax,-0xa0(%ebp)
  402363:	c7 85 30 ff ff ff ce 	movl   $0x920ccace,-0xd0(%ebp)
  40236a:	ca 0c 92 
  40236d:	c7 85 34 ff ff ff 38 	movl   $0x17135938,-0xcc(%ebp)
  402374:	59 13 17 
  402377:	8b 85 30 ff ff ff    	mov    -0xd0(%ebp),%eax
  40237d:	8b 8d 34 ff ff ff    	mov    -0xcc(%ebp),%ecx
  402383:	89 8d 6c ff ff ff    	mov    %ecx,-0x94(%ebp)
  402389:	89 85 68 ff ff ff    	mov    %eax,-0x98(%ebp)
  40238f:	c7 85 30 ff ff ff 8b 	movl   $0x5a7f0c8b,-0xd0(%ebp)
  402396:	0c 7f 5a 
  402399:	c7 85 34 ff ff ff 3b 	movl   $0x3a90213b,-0xcc(%ebp)
  4023a0:	21 90 3a 
  4023a3:	8b 85 30 ff ff ff    	mov    -0xd0(%ebp),%eax
  4023a9:	8b 8d 34 ff ff ff    	mov    -0xcc(%ebp),%ecx
  4023af:	89 8d 74 ff ff ff    	mov    %ecx,-0x8c(%ebp)
  4023b5:	89 85 70 ff ff ff    	mov    %eax,-0x90(%ebp)
  4023bb:	c7 85 30 ff ff ff 40 	movl   $0x55c25340,-0xd0(%ebp)
  4023c2:	53 c2 55 
  4023c5:	c7 85 34 ff ff ff 82 	movl   $0x6910c882,-0xcc(%ebp)
  4023cc:	c8 10 69 
  4023cf:	8b 85 30 ff ff ff    	mov    -0xd0(%ebp),%eax
  4023d5:	8b 8d 34 ff ff ff    	mov    -0xcc(%ebp),%ecx
  4023db:	89 8d 7c ff ff ff    	mov    %ecx,-0x84(%ebp)
  4023e1:	89 85 78 ff ff ff    	mov    %eax,-0x88(%ebp)
  4023e7:	c7 85 30 ff ff ff cd 	movl   $0xf79380cd,-0xd0(%ebp)
  4023ee:	80 93 f7 
  4023f1:	c7 85 34 ff ff ff ad 	movl   $0x152936ad,-0xcc(%ebp)
  4023f8:	36 29 15 
  4023fb:	8b 85 30 ff ff ff    	mov    -0xd0(%ebp),%eax
  402401:	8b 8d 34 ff ff ff    	mov    -0xcc(%ebp),%ecx
  402407:	89 4d 84             	mov    %ecx,-0x7c(%ebp)
  40240a:	89 45 80             	mov    %eax,-0x80(%ebp)
  40240d:	c7 85 30 ff ff ff 42 	movl   $0x5324c742,-0xd0(%ebp)
  402414:	c7 24 53 
  402417:	c7 85 34 ff ff ff 0c 	movl   $0xbd4a540c,-0xcc(%ebp)
  40241e:	54 4a bd 
  402421:	8b 85 30 ff ff ff    	mov    -0xd0(%ebp),%eax
  402427:	8b 8d 34 ff ff ff    	mov    -0xcc(%ebp),%ecx
  40242d:	c5 fe 6f 85 40 ff ff 	vmovdqu -0xc0(%ebp),%ymm0
  402434:	ff 
  402435:	c5 fd ef 85 c0 fe ff 	vpxor  -0x140(%ebp),%ymm0,%ymm0
  40243c:	ff 
  40243d:	c5 fd 7f 85 c0 fe ff 	vmovdqa %ymm0,-0x140(%ebp)
  402444:	ff 
  402445:	c5 fe 6f 85 e0 fe ff 	vmovdqu -0x120(%ebp),%ymm0
  40244c:	ff 
  40244d:	c5 fd ef 85 60 ff ff 	vpxor  -0xa0(%ebp),%ymm0,%ymm0
  402454:	ff 
  402455:	89 4d 8c             	mov    %ecx,-0x74(%ebp)
  402458:	8b ce                	mov    %esi,%ecx
  40245a:	89 45 88             	mov    %eax,-0x78(%ebp)
  40245d:	c5 fd 7f 85 e0 fe ff 	vmovdqa %ymm0,-0x120(%ebp)
  402464:	ff 
  402465:	c5 f8 28 8d 00 ff ff 	vmovaps -0x100(%ebp),%xmm1
  40246c:	ff 
  40246d:	c5 f1 ef 4d 80       	vpxor  -0x80(%ebp),%xmm1,%xmm1
  402472:	c5 f8 29 8d 00 ff ff 	vmovaps %xmm1,-0x100(%ebp)
  402479:	ff 
  40247a:	c5 f8 77             	vzeroupper
  40247d:	e8 9e 03 00 00       	call   0x402820
  402482:	33 c0                	xor    %eax,%eax
  402484:	8b 4d f4             	mov    -0xc(%ebp),%ecx
  402487:	64 89 0d 00 00 00 00 	mov    %ecx,%fs:0x0
  40248e:	59                   	pop    %ecx
  40248f:	5e                   	pop    %esi
  402490:	8b 4d dc             	mov    -0x24(%ebp),%ecx
  402493:	33 cd                	xor    %ebp,%ecx
  402495:	e8 2e 0b 00 00       	call   0x402fc8
  40249a:	8b e5                	mov    %ebp,%esp
  40249c:	5d                   	pop    %ebp
  40249d:	8b e3                	mov    %ebx,%esp
  40249f:	5b                   	pop    %ebx
  4024a0:	c3                   	ret
  4024a1:	6a 06                	push   $0x6
  4024a3:	c7 85 34 ff ff ff 00 	movl   $0x0,-0xcc(%ebp)
  4024aa:	00 00 00 
  4024ad:	ff 15 74 50 40 00    	call   *0x405074
  4024b3:	cc                   	int3
  4024b4:	cc                   	int3
  4024b5:	cc                   	int3
  4024b6:	cc                   	int3
  4024b7:	cc                   	int3
  4024b8:	cc                   	int3
  4024b9:	cc                   	int3
  4024ba:	cc                   	int3
  4024bb:	cc                   	int3
  4024bc:	cc                   	int3
  4024bd:	cc                   	int3
  4024be:	cc                   	int3
  4024bf:	cc                   	int3
  4024c0:	56                   	push   %esi
  4024c1:	8b f1                	mov    %ecx,%esi
  4024c3:	8b 4e 14             	mov    0x14(%esi),%ecx
  4024c6:	83 f9 10             	cmp    $0x10,%ecx
  4024c9:	72 27                	jb     0x4024f2
  4024cb:	8b 06                	mov    (%esi),%eax
  4024cd:	41                   	inc    %ecx
  4024ce:	81 f9 00 10 00 00    	cmp    $0x1000,%ecx
  4024d4:	72 12                	jb     0x4024e8
  4024d6:	8b 50 fc             	mov    -0x4(%eax),%edx
  4024d9:	83 c1 23             	add    $0x23,%ecx
  4024dc:	2b c2                	sub    %edx,%eax
  4024de:	83 c0 fc             	add    $0xfffffffc,%eax
  4024e1:	83 f8 1f             	cmp    $0x1f,%eax
  4024e4:	77 1f                	ja     0x402505
  4024e6:	8b c2                	mov    %edx,%eax
  4024e8:	51                   	push   %ecx
  4024e9:	50                   	push   %eax
  4024ea:	e8 68 0d 00 00       	call   0x403257
  4024ef:	83 c4 08             	add    $0x8,%esp
  4024f2:	c7 46 10 00 00 00 00 	movl   $0x0,0x10(%esi)
  4024f9:	c7 46 14 0f 00 00 00 	movl   $0xf,0x14(%esi)
  402500:	c6 06 00             	movb   $0x0,(%esi)
  402503:	5e                   	pop    %esi
  402504:	c3                   	ret
  402505:	ff 15 18 51 40 00    	call   *0x405118
  40250b:	cc                   	int3
  40250c:	cc                   	int3
  40250d:	cc                   	int3
  40250e:	cc                   	int3
  40250f:	cc                   	int3
  402510:	55                   	push   %ebp
  402511:	8b ec                	mov    %esp,%ebp
  402513:	83 ec 08             	sub    $0x8,%esp
  402516:	53                   	push   %ebx
  402517:	56                   	push   %esi
  402518:	8b d9                	mov    %ecx,%ebx
  40251a:	0f 57 c0             	xorps  %xmm0,%xmm0
  40251d:	57                   	push   %edi
  40251e:	8b 7d 08             	mov    0x8(%ebp),%edi
  402521:	8b f7                	mov    %edi,%esi
  402523:	89 7d f8             	mov    %edi,-0x8(%ebp)
  402526:	0f 11 03             	movups %xmm0,(%ebx)
  402529:	c7 43 10 00 00 00 00 	movl   $0x0,0x10(%ebx)
  402530:	c7 43 14 00 00 00 00 	movl   $0x0,0x14(%ebx)
  402537:	8d 4e 01             	lea    0x1(%esi),%ecx
  40253a:	66 0f 1f 44 00 00    	nopw   0x0(%eax,%eax,1)
  402540:	8a 06                	mov    (%esi),%al
  402542:	46                   	inc    %esi
  402543:	84 c0                	test   %al,%al
  402545:	75 f9                	jne    0x402540
  402547:	2b f1                	sub    %ecx,%esi
  402549:	81 fe ff ff ff 7f    	cmp    $0x7fffffff,%esi
  40254f:	0f 87 b7 00 00 00    	ja     0x40260c
  402555:	c7 43 14 0f 00 00 00 	movl   $0xf,0x14(%ebx)
  40255c:	83 fe 10             	cmp    $0x10,%esi
  40255f:	73 19                	jae    0x40257a
  402561:	56                   	push   %esi
  402562:	57                   	push   %edi
  402563:	53                   	push   %ebx
  402564:	89 73 10             	mov    %esi,0x10(%ebx)
  402567:	e8 ae 17 00 00       	call   0x403d1a
  40256c:	83 c4 0c             	add    $0xc,%esp
  40256f:	8b c3                	mov    %ebx,%eax
  402571:	5f                   	pop    %edi
  402572:	5e                   	pop    %esi
  402573:	5b                   	pop    %ebx
  402574:	8b e5                	mov    %ebp,%esp
  402576:	5d                   	pop    %ebp
  402577:	c2 04 00             	ret    $0x4
  40257a:	8b fe                	mov    %esi,%edi
  40257c:	83 cf 0f             	or     $0xf,%edi
  40257f:	81 ff ff ff ff 7f    	cmp    $0x7fffffff,%edi
  402585:	76 27                	jbe    0x4025ae
  402587:	b9 00 00 00 80       	mov    $0x80000000,%ecx
  40258c:	bf ff ff ff 7f       	mov    $0x7fffffff,%edi
  402591:	83 c1 23             	add    $0x23,%ecx
  402594:	51                   	push   %ecx
  402595:	e8 3c 0a 00 00       	call   0x402fd6
  40259a:	8b c8                	mov    %eax,%ecx
  40259c:	83 c4 04             	add    $0x4,%esp
  40259f:	85 c9                	test   %ecx,%ecx
  4025a1:	74 28                	je     0x4025cb
  4025a3:	8d 41 23             	lea    0x23(%ecx),%eax
  4025a6:	83 e0 e0             	and    $0xffffffe0,%eax
  4025a9:	89 48 fc             	mov    %ecx,-0x4(%eax)
  4025ac:	eb 34                	jmp    0x4025e2
  4025ae:	b8 16 00 00 00       	mov    $0x16,%eax
  4025b3:	3b f8                	cmp    %eax,%edi
  4025b5:	0f 42 f8             	cmovb  %eax,%edi
  4025b8:	8d 47 01             	lea    0x1(%edi),%eax
  4025bb:	3d 00 10 00 00       	cmp    $0x1000,%eax
  4025c0:	72 0f                	jb     0x4025d1
  4025c2:	8d 48 23             	lea    0x23(%eax),%ecx
  4025c5:	3b c8                	cmp    %eax,%ecx
  4025c7:	76 48                	jbe    0x402611
  4025c9:	eb c9                	jmp    0x402594
  4025cb:	ff 15 18 51 40 00    	call   *0x405118
  4025d1:	85 c0                	test   %eax,%eax
  4025d3:	74 0b                	je     0x4025e0
  4025d5:	50                   	push   %eax
  4025d6:	e8 fb 09 00 00       	call   0x402fd6
  4025db:	83 c4 04             	add    $0x4,%esp
  4025de:	eb 02                	jmp    0x4025e2
  4025e0:	33 c0                	xor    %eax,%eax
  4025e2:	56                   	push   %esi
  4025e3:	ff 75 f8             	push   -0x8(%ebp)
  4025e6:	89 45 fc             	mov    %eax,-0x4(%ebp)
  4025e9:	50                   	push   %eax
  4025ea:	89 03                	mov    %eax,(%ebx)
  4025ec:	89 73 10             	mov    %esi,0x10(%ebx)
  4025ef:	89 7b 14             	mov    %edi,0x14(%ebx)
  4025f2:	e8 1d 17 00 00       	call   0x403d14
  4025f7:	8b 45 fc             	mov    -0x4(%ebp),%eax
  4025fa:	83 c4 0c             	add    $0xc,%esp
  4025fd:	5f                   	pop    %edi
  4025fe:	c6 04 30 00          	movb   $0x0,(%eax,%esi,1)
  402602:	8b c3                	mov    %ebx,%eax
  402604:	5e                   	pop    %esi
  402605:	5b                   	pop    %ebx
  402606:	8b e5                	mov    %ebp,%esp
  402608:	5d                   	pop    %ebp
  402609:	c2 04 00             	ret    $0x4
  40260c:	e8 ef eb ff ff       	call   0x401200
  402611:	e8 4a eb ff ff       	call   0x401160
  402616:	cc                   	int3
  402617:	cc                   	int3
  402618:	cc                   	int3
  402619:	cc                   	int3
  40261a:	cc                   	int3
  40261b:	cc                   	int3
  40261c:	cc                   	int3
  40261d:	cc                   	int3
  40261e:	cc                   	int3
  40261f:	cc                   	int3
  402620:	55                   	push   %ebp
  402621:	8b ec                	mov    %esp,%ebp
  402623:	51                   	push   %ecx
  402624:	8b 45 08             	mov    0x8(%ebp),%eax
  402627:	0f 57 c0             	xorps  %xmm0,%xmm0
  40262a:	53                   	push   %ebx
  40262b:	57                   	push   %edi
  40262c:	8b f9                	mov    %ecx,%edi
  40262e:	89 45 fc             	mov    %eax,-0x4(%ebp)
  402631:	0f 11 07             	movups %xmm0,(%edi)
  402634:	c7 47 10 00 00 00 00 	movl   $0x0,0x10(%edi)
  40263b:	c7 47 14 00 00 00 00 	movl   $0x0,0x14(%edi)
  402642:	83 78 14 10          	cmpl   $0x10,0x14(%eax)
  402646:	8b 58 10             	mov    0x10(%eax),%ebx
  402649:	72 05                	jb     0x402650
  40264b:	8b 00                	mov    (%eax),%eax
  40264d:	89 45 fc             	mov    %eax,-0x4(%ebp)
  402650:	81 fb ff ff ff 7f    	cmp    $0x7fffffff,%ebx
  402656:	0f 87 b1 00 00 00    	ja     0x40270d
  40265c:	c7 47 14 0f 00 00 00 	movl   $0xf,0x14(%edi)
  402663:	83 fb 10             	cmp    $0x10,%ebx
  402666:	73 19                	jae    0x402681
  402668:	6a 10                	push   $0x10
  40266a:	50                   	push   %eax
  40266b:	57                   	push   %edi
  40266c:	89 5f 10             	mov    %ebx,0x10(%edi)
  40266f:	e8 a6 16 00 00       	call   0x403d1a
  402674:	83 c4 0c             	add    $0xc,%esp
  402677:	8b c7                	mov    %edi,%eax
  402679:	5f                   	pop    %edi
  40267a:	5b                   	pop    %ebx
  40267b:	8b e5                	mov    %ebp,%esp
  40267d:	5d                   	pop    %ebp
  40267e:	c2 04 00             	ret    $0x4
  402681:	56                   	push   %esi
  402682:	8b f3                	mov    %ebx,%esi
  402684:	83 ce 0f             	or     $0xf,%esi
  402687:	81 fe ff ff ff 7f    	cmp    $0x7fffffff,%esi
  40268d:	76 27                	jbe    0x4026b6
  40268f:	b9 00 00 00 80       	mov    $0x80000000,%ecx
  402694:	be ff ff ff 7f       	mov    $0x7fffffff,%esi
  402699:	83 c1 23             	add    $0x23,%ecx
  40269c:	51                   	push   %ecx
  40269d:	e8 34 09 00 00       	call   0x402fd6
  4026a2:	8b c8                	mov    %eax,%ecx
  4026a4:	83 c4 04             	add    $0x4,%esp
  4026a7:	85 c9                	test   %ecx,%ecx
  4026a9:	74 28                	je     0x4026d3
  4026ab:	8d 41 23             	lea    0x23(%ecx),%eax
  4026ae:	83 e0 e0             	and    $0xffffffe0,%eax
  4026b1:	89 48 fc             	mov    %ecx,-0x4(%eax)
  4026b4:	eb 34                	jmp    0x4026ea
  4026b6:	b8 16 00 00 00       	mov    $0x16,%eax
  4026bb:	3b f0                	cmp    %eax,%esi
  4026bd:	0f 42 f0             	cmovb  %eax,%esi
  4026c0:	8d 46 01             	lea    0x1(%esi),%eax
  4026c3:	3d 00 10 00 00       	cmp    $0x1000,%eax
  4026c8:	72 0f                	jb     0x4026d9
  4026ca:	8d 48 23             	lea    0x23(%eax),%ecx
  4026cd:	3b c8                	cmp    %eax,%ecx
  4026cf:	76 41                	jbe    0x402712
  4026d1:	eb c9                	jmp    0x40269c
  4026d3:	ff 15 18 51 40 00    	call   *0x405118
  4026d9:	85 c0                	test   %eax,%eax
  4026db:	74 0b                	je     0x4026e8
  4026dd:	50                   	push   %eax
  4026de:	e8 f3 08 00 00       	call   0x402fd6
  4026e3:	83 c4 04             	add    $0x4,%esp
  4026e6:	eb 02                	jmp    0x4026ea
  4026e8:	33 c0                	xor    %eax,%eax
  4026ea:	8d 4b 01             	lea    0x1(%ebx),%ecx
  4026ed:	89 07                	mov    %eax,(%edi)
  4026ef:	51                   	push   %ecx
  4026f0:	ff 75 fc             	push   -0x4(%ebp)
  4026f3:	89 5f 10             	mov    %ebx,0x10(%edi)
  4026f6:	50                   	push   %eax
  4026f7:	89 77 14             	mov    %esi,0x14(%edi)
  4026fa:	e8 15 16 00 00       	call   0x403d14
  4026ff:	83 c4 0c             	add    $0xc,%esp
  402702:	8b c7                	mov    %edi,%eax
  402704:	5e                   	pop    %esi
  402705:	5f                   	pop    %edi
  402706:	5b                   	pop    %ebx
  402707:	8b e5                	mov    %ebp,%esp
  402709:	5d                   	pop    %ebp
  40270a:	c2 04 00             	ret    $0x4
  40270d:	e8 ee ea ff ff       	call   0x401200
  402712:	e8 49 ea ff ff       	call   0x401160
  402717:	cc                   	int3
  402718:	cc                   	int3
  402719:	cc                   	int3
  40271a:	cc                   	int3
  40271b:	cc                   	int3
  40271c:	cc                   	int3
  40271d:	cc                   	int3
  40271e:	cc                   	int3
  40271f:	cc                   	int3
  402720:	55                   	push   %ebp
  402721:	8b ec                	mov    %esp,%ebp
  402723:	6a ff                	push   $0xffffffff
  402725:	68 d6 3d 40 00       	push   $0x403dd6
  40272a:	64 a1 00 00 00 00    	mov    %fs:0x0,%eax
  402730:	50                   	push   %eax
  402731:	83 ec 10             	sub    $0x10,%esp
  402734:	a1 04 70 40 00       	mov    0x407004,%eax
  402739:	33 c5                	xor    %ebp,%eax
  40273b:	89 45 f0             	mov    %eax,-0x10(%ebp)
  40273e:	53                   	push   %ebx
  40273f:	56                   	push   %esi
  402740:	57                   	push   %edi
  402741:	50                   	push   %eax
  402742:	8d 45 f4             	lea    -0xc(%ebp),%eax
  402745:	64 a3 00 00 00 00    	mov    %eax,%fs:0x0
  40274b:	8b 75 08             	mov    0x8(%ebp),%esi
  40274e:	8d 4d e8             	lea    -0x18(%ebp),%ecx
  402751:	6a 00                	push   $0x0
  402753:	89 75 ec             	mov    %esi,-0x14(%ebp)
  402756:	ff 15 70 50 40 00    	call   *0x405070
  40275c:	c7 45 fc 00 00 00 00 	movl   $0x0,-0x4(%ebp)
  402763:	a1 a0 74 40 00       	mov    0x4074a0,%eax
  402768:	8b 0d 8c 50 40 00    	mov    0x40508c,%ecx
  40276e:	89 45 e4             	mov    %eax,-0x1c(%ebp)
  402771:	ff 15 64 50 40 00    	call   *0x405064
  402777:	8b 56 04             	mov    0x4(%esi),%edx
  40277a:	8b d8                	mov    %eax,%ebx
  40277c:	8d 3c 9d 00 00 00 00 	lea    0x0(,%ebx,4),%edi
  402783:	3b 5a 0c             	cmp    0xc(%edx),%ebx
  402786:	73 0c                	jae    0x402794
  402788:	8b 4a 08             	mov    0x8(%edx),%ecx
  40278b:	8b 34 0f             	mov    (%edi,%ecx,1),%esi
  40278e:	85 f6                	test   %esi,%esi
  402790:	75 5e                	jne    0x4027f0
  402792:	eb 02                	jmp    0x402796
  402794:	33 f6                	xor    %esi,%esi
  402796:	80 7a 14 00          	cmpb   $0x0,0x14(%edx)
  40279a:	74 11                	je     0x4027ad
  40279c:	ff 15 7c 50 40 00    	call   *0x40507c
  4027a2:	3b 58 0c             	cmp    0xc(%eax),%ebx
  4027a5:	73 0a                	jae    0x4027b1
  4027a7:	8b 40 08             	mov    0x8(%eax),%eax
  4027aa:	8b 34 07             	mov    (%edi,%eax,1),%esi
  4027ad:	85 f6                	test   %esi,%esi
  4027af:	75 3f                	jne    0x4027f0
  4027b1:	8b 75 e4             	mov    -0x1c(%ebp),%esi
  4027b4:	85 f6                	test   %esi,%esi
  4027b6:	75 38                	jne    0x4027f0
  4027b8:	ff 75 ec             	push   -0x14(%ebp)
  4027bb:	8d 45 e4             	lea    -0x1c(%ebp),%eax
  4027be:	50                   	push   %eax
  4027bf:	ff 15 60 50 40 00    	call   *0x405060
  4027c5:	83 c4 08             	add    $0x8,%esp
  4027c8:	83 f8 ff             	cmp    $0xffffffff,%eax
  4027cb:	74 4a                	je     0x402817
  4027cd:	8b 75 e4             	mov    -0x1c(%ebp),%esi
  4027d0:	89 75 ec             	mov    %esi,-0x14(%ebp)
  4027d3:	56                   	push   %esi
  4027d4:	c6 45 fc 01          	movb   $0x1,-0x4(%ebp)
  4027d8:	e8 bf 07 00 00       	call   0x402f9c
  4027dd:	8b 06                	mov    (%esi),%eax
  4027df:	83 c4 04             	add    $0x4,%esp
  4027e2:	8b ce                	mov    %esi,%ecx
  4027e4:	ff 50 04             	call   *0x4(%eax)
  4027e7:	8b 75 e4             	mov    -0x1c(%ebp),%esi
  4027ea:	89 35 a0 74 40 00    	mov    %esi,0x4074a0
  4027f0:	8d 4d e8             	lea    -0x18(%ebp),%ecx
  4027f3:	ff 15 6c 50 40 00    	call   *0x40506c
  4027f9:	8b c6                	mov    %esi,%eax
  4027fb:	8b 4d f4             	mov    -0xc(%ebp),%ecx
  4027fe:	64 89 0d 00 00 00 00 	mov    %ecx,%fs:0x0
  402805:	59                   	pop    %ecx
  402806:	5f                   	pop    %edi
  402807:	5e                   	pop    %esi
  402808:	5b                   	pop    %ebx
  402809:	8b 4d f0             	mov    -0x10(%ebp),%ecx
  40280c:	33 cd                	xor    %ebp,%ecx
  40280e:	e8 b5 07 00 00       	call   0x402fc8
  402813:	8b e5                	mov    %ebp,%esp
  402815:	5d                   	pop    %ebp
  402816:	c3                   	ret
  402817:	e8 14 ea ff ff       	call   0x401230
  40281c:	cc                   	int3
  40281d:	cc                   	int3
  40281e:	cc                   	int3
  40281f:	cc                   	int3
  402820:	55                   	push   %ebp
  402821:	8b ec                	mov    %esp,%ebp
  402823:	6a ff                	push   $0xffffffff
  402825:	68 15 3e 40 00       	push   $0x403e15
  40282a:	64 a1 00 00 00 00    	mov    %fs:0x0,%eax
  402830:	50                   	push   %eax
  402831:	83 ec 24             	sub    $0x24,%esp
  402834:	53                   	push   %ebx
  402835:	56                   	push   %esi
  402836:	57                   	push   %edi
  402837:	a1 04 70 40 00       	mov    0x407004,%eax
  40283c:	33 c5                	xor    %ebp,%eax
  40283e:	50                   	push   %eax
  40283f:	8d 45 f4             	lea    -0xc(%ebp),%eax
  402842:	64 a3 00 00 00 00    	mov    %eax,%fs:0x0
  402848:	89 65 f0             	mov    %esp,-0x10(%ebp)
  40284b:	89 55 dc             	mov    %edx,-0x24(%ebp)
  40284e:	8b d9                	mov    %ecx,%ebx
  402850:	89 5d e0             	mov    %ebx,-0x20(%ebp)
  402853:	8b ca                	mov    %edx,%ecx
  402855:	33 c0                	xor    %eax,%eax
  402857:	89 45 ec             	mov    %eax,-0x14(%ebp)
  40285a:	89 45 e8             	mov    %eax,-0x18(%ebp)
  40285d:	8d 71 01             	lea    0x1(%ecx),%esi
  402860:	8a 01                	mov    (%ecx),%al
  402862:	41                   	inc    %ecx
  402863:	84 c0                	test   %al,%al
  402865:	75 f9                	jne    0x402860
  402867:	8b 03                	mov    (%ebx),%eax
  402869:	2b ce                	sub    %esi,%ecx
  40286b:	89 4d e4             	mov    %ecx,-0x1c(%ebp)
  40286e:	8b 40 04             	mov    0x4(%eax),%eax
  402871:	8b 7c 18 24          	mov    0x24(%eax,%ebx,1),%edi
  402875:	8b 74 18 20          	mov    0x20(%eax,%ebx,1),%esi
  402879:	85 ff                	test   %edi,%edi
  40287b:	7c 17                	jl     0x402894
  40287d:	7f 0e                	jg     0x40288d
  40287f:	85 f6                	test   %esi,%esi
  402881:	74 11                	je     0x402894
  402883:	85 ff                	test   %edi,%edi
  402885:	7c 0d                	jl     0x402894
  402887:	7f 04                	jg     0x40288d
  402889:	3b f1                	cmp    %ecx,%esi
  40288b:	76 07                	jbe    0x402894
  40288d:	2b f1                	sub    %ecx,%esi
  40288f:	83 df 00             	sbb    $0x0,%edi
  402892:	eb 0e                	jmp    0x4028a2
  402894:	0f 57 c0             	xorps  %xmm0,%xmm0
  402897:	66 0f 13 45 d0       	movlpd %xmm0,-0x30(%ebp)
  40289c:	8b 7d d4             	mov    -0x2c(%ebp),%edi
  40289f:	8b 75 d0             	mov    -0x30(%ebp),%esi
  4028a2:	8b 4c 18 38          	mov    0x38(%eax,%ebx,1),%ecx
  4028a6:	89 5d d0             	mov    %ebx,-0x30(%ebp)
  4028a9:	85 c9                	test   %ecx,%ecx
  4028ab:	74 05                	je     0x4028b2
  4028ad:	8b 01                	mov    (%ecx),%eax
  4028af:	ff 50 04             	call   *0x4(%eax)
  4028b2:	c7 45 fc 00 00 00 00 	movl   $0x0,-0x4(%ebp)
  4028b9:	8b 0b                	mov    (%ebx),%ecx
  4028bb:	8b 41 04             	mov    0x4(%ecx),%eax
  4028be:	03 c3                	add    %ebx,%eax
  4028c0:	83 78 0c 00          	cmpl   $0x0,0xc(%eax)
  4028c4:	74 04                	je     0x4028ca
  4028c6:	32 c0                	xor    %al,%al
  4028c8:	eb 24                	jmp    0x4028ee
  4028ca:	8b 40 3c             	mov    0x3c(%eax),%eax
  4028cd:	85 c0                	test   %eax,%eax
  4028cf:	74 1b                	je     0x4028ec
  4028d1:	3b c3                	cmp    %ebx,%eax
  4028d3:	74 17                	je     0x4028ec
  4028d5:	8b c8                	mov    %eax,%ecx
  4028d7:	ff 15 3c 50 40 00    	call   *0x40503c
  4028dd:	8b 0b                	mov    (%ebx),%ecx
  4028df:	8b 41 04             	mov    0x4(%ecx),%eax
  4028e2:	83 7c 18 0c 00       	cmpl   $0x0,0xc(%eax,%ebx,1)
  4028e7:	0f 94 c0             	sete   %al
  4028ea:	eb 02                	jmp    0x4028ee
  4028ec:	b0 01                	mov    $0x1,%al
  4028ee:	88 45 d4             	mov    %al,-0x2c(%ebp)
  4028f1:	c7 45 fc 01 00 00 00 	movl   $0x1,-0x4(%ebp)
  4028f8:	84 c0                	test   %al,%al
  4028fa:	75 0a                	jne    0x402906
  4028fc:	ba 04 00 00 00       	mov    $0x4,%edx
  402901:	e9 df 00 00 00       	jmp    0x4029e5
  402906:	c6 45 fc 02          	movb   $0x2,-0x4(%ebp)
  40290a:	8b 41 04             	mov    0x4(%ecx),%eax
  40290d:	8b 44 18 14          	mov    0x14(%eax,%ebx,1),%eax
  402911:	25 c0 01 00 00       	and    $0x1c0,%eax
  402916:	83 f8 40             	cmp    $0x40,%eax
  402919:	74 35                	je     0x402950
  40291b:	0f 1f 44 00 00       	nopl   0x0(%eax,%eax,1)
  402920:	85 ff                	test   %edi,%edi
  402922:	7c 2c                	jl     0x402950
  402924:	7f 04                	jg     0x40292a
  402926:	85 f6                	test   %esi,%esi
  402928:	74 26                	je     0x402950
  40292a:	8b 03                	mov    (%ebx),%eax
  40292c:	8b 40 04             	mov    0x4(%eax),%eax
  40292f:	8b 4c 18 38          	mov    0x38(%eax,%ebx,1),%ecx
  402933:	8a 44 18 40          	mov    0x40(%eax,%ebx,1),%al
  402937:	50                   	push   %eax
  402938:	ff 15 54 50 40 00    	call   *0x405054
  40293e:	83 f8 ff             	cmp    $0xffffffff,%eax
  402941:	75 05                	jne    0x402948
  402943:	8d 50 05             	lea    0x5(%eax),%edx
  402946:	eb 2d                	jmp    0x402975
  402948:	83 c6 ff             	add    $0xffffffff,%esi
  40294b:	83 d7 ff             	adc    $0xffffffff,%edi
  40294e:	eb d0                	jmp    0x402920
  402950:	8b 03                	mov    (%ebx),%eax
  402952:	6a 00                	push   $0x0
  402954:	ff 75 e4             	push   -0x1c(%ebp)
  402957:	8b 40 04             	mov    0x4(%eax),%eax
  40295a:	ff 75 dc             	push   -0x24(%ebp)
  40295d:	8b 4c 18 38          	mov    0x38(%eax,%ebx,1),%ecx
  402961:	ff 15 48 50 40 00    	call   *0x405048
  402967:	3b 45 e4             	cmp    -0x1c(%ebp),%eax
  40296a:	75 04                	jne    0x402970
  40296c:	85 d2                	test   %edx,%edx
  40296e:	74 1c                	je     0x40298c
  402970:	33 d2                	xor    %edx,%edx
  402972:	83 ca 04             	or     $0x4,%edx
  402975:	8b 03                	mov    (%ebx),%eax
  402977:	8b 40 04             	mov    0x4(%eax),%eax
  40297a:	c7 44 18 20 00 00 00 	movl   $0x0,0x20(%eax,%ebx,1)
  402981:	00 
  402982:	c7 44 18 24 00 00 00 	movl   $0x0,0x24(%eax,%ebx,1)
  402989:	00 
  40298a:	eb 52                	jmp    0x4029de
  40298c:	33 d2                	xor    %edx,%edx
  40298e:	66 90                	xchg   %ax,%ax
  402990:	85 ff                	test   %edi,%edi
  402992:	7c e1                	jl     0x402975
  402994:	7f 04                	jg     0x40299a
  402996:	85 f6                	test   %esi,%esi
  402998:	74 db                	je     0x402975
  40299a:	8b 03                	mov    (%ebx),%eax
  40299c:	8b 40 04             	mov    0x4(%eax),%eax
  40299f:	8b 4c 18 38          	mov    0x38(%eax,%ebx,1),%ecx
  4029a3:	8a 44 18 40          	mov    0x40(%eax,%ebx,1),%al
  4029a7:	50                   	push   %eax
  4029a8:	ff 15 54 50 40 00    	call   *0x405054
  4029ae:	8b 55 ec             	mov    -0x14(%ebp),%edx
  4029b1:	83 f8 ff             	cmp    $0xffffffff,%eax
  4029b4:	74 bc                	je     0x402972
  4029b6:	83 c6 ff             	add    $0xffffffff,%esi
  4029b9:	83 d7 ff             	adc    $0xffffffff,%edi
  4029bc:	eb d2                	jmp    0x402990
  4029be:	8b 55 e0             	mov    -0x20(%ebp),%edx
  4029c1:	6a 01                	push   $0x1
  4029c3:	6a 04                	push   $0x4
  4029c5:	8b 02                	mov    (%edx),%eax
  4029c7:	8b 48 04             	mov    0x4(%eax),%ecx
  4029ca:	03 ca                	add    %edx,%ecx
  4029cc:	ff 15 4c 50 40 00    	call   *0x40504c
  4029d2:	b8 d8 29 40 00       	mov    $0x4029d8,%eax
  4029d7:	c3                   	ret
  4029d8:	8b 5d e0             	mov    -0x20(%ebp),%ebx
  4029db:	8b 55 e8             	mov    -0x18(%ebp),%edx
  4029de:	c7 45 fc 01 00 00 00 	movl   $0x1,-0x4(%ebp)
  4029e5:	8b 03                	mov    (%ebx),%eax
  4029e7:	6a 00                	push   $0x0
  4029e9:	52                   	push   %edx
  4029ea:	8b 48 04             	mov    0x4(%eax),%ecx
  4029ed:	03 cb                	add    %ebx,%ecx
  4029ef:	ff 15 4c 50 40 00    	call   *0x40504c
  4029f5:	c7 45 fc 04 00 00 00 	movl   $0x4,-0x4(%ebp)
  4029fc:	ff 15 80 50 40 00    	call   *0x405080
  402a02:	8b 75 d0             	mov    -0x30(%ebp),%esi
  402a05:	84 c0                	test   %al,%al
  402a07:	75 08                	jne    0x402a11
  402a09:	8b ce                	mov    %esi,%ecx
  402a0b:	ff 15 38 50 40 00    	call   *0x405038
  402a11:	c6 45 fc 05          	movb   $0x5,-0x4(%ebp)
  402a15:	8b 06                	mov    (%esi),%eax
  402a17:	8b 40 04             	mov    0x4(%eax),%eax
  402a1a:	8b 4c 30 38          	mov    0x38(%eax,%esi,1),%ecx
  402a1e:	85 c9                	test   %ecx,%ecx
  402a20:	74 05                	je     0x402a27
  402a22:	8b 01                	mov    (%ecx),%eax
  402a24:	ff 50 08             	call   *0x8(%eax)
  402a27:	8b c3                	mov    %ebx,%eax
  402a29:	8b 4d f4             	mov    -0xc(%ebp),%ecx
  402a2c:	64 89 0d 00 00 00 00 	mov    %ecx,%fs:0x0
  402a33:	59                   	pop    %ecx
  402a34:	5f                   	pop    %edi
  402a35:	5e                   	pop    %esi
  402a36:	5b                   	pop    %ebx
  402a37:	8b e5                	mov    %ebp,%esp
  402a39:	5d                   	pop    %ebp
  402a3a:	c3                   	ret
  402a3b:	cc                   	int3
  402a3c:	cc                   	int3
  402a3d:	cc                   	int3
  402a3e:	cc                   	int3
  402a3f:	cc                   	int3
  402a40:	55                   	push   %ebp
  402a41:	8b ec                	mov    %esp,%ebp
  402a43:	6a ff                	push   $0xffffffff
  402a45:	68 5d 3e 40 00       	push   $0x403e5d
  402a4a:	64 a1 00 00 00 00    	mov    %fs:0x0,%eax
  402a50:	50                   	push   %eax
  402a51:	83 ec 2c             	sub    $0x2c,%esp
  402a54:	53                   	push   %ebx
  402a55:	56                   	push   %esi
  402a56:	57                   	push   %edi
  402a57:	a1 04 70 40 00       	mov    0x407004,%eax
  402a5c:	33 c5                	xor    %ebp,%eax
  402a5e:	50                   	push   %eax
  402a5f:	8d 45 f4             	lea    -0xc(%ebp),%eax
  402a62:	64 a3 00 00 00 00    	mov    %eax,%fs:0x0
  402a68:	89 65 f0             	mov    %esp,-0x10(%ebp)
  402a6b:	8b f1                	mov    %ecx,%esi
  402a6d:	8b 06                	mov    (%esi),%eax
  402a6f:	33 db                	xor    %ebx,%ebx
  402a71:	8b fe                	mov    %esi,%edi
  402a73:	89 75 e4             	mov    %esi,-0x1c(%ebp)
  402a76:	89 5d d8             	mov    %ebx,-0x28(%ebp)
  402a79:	88 5d eb             	mov    %bl,-0x15(%ebp)
  402a7c:	8b 40 04             	mov    0x4(%eax),%eax
  402a7f:	89 7d d0             	mov    %edi,-0x30(%ebp)
  402a82:	8b 4c 30 38          	mov    0x38(%eax,%esi,1),%ecx
  402a86:	85 c9                	test   %ecx,%ecx
  402a88:	74 05                	je     0x402a8f
  402a8a:	8b 01                	mov    (%ecx),%eax
  402a8c:	ff 50 04             	call   *0x4(%eax)
  402a8f:	6a 00                	push   $0x0
  402a91:	8b ce                	mov    %esi,%ecx
  402a93:	c7 45 fc 00 00 00 00 	movl   $0x0,-0x4(%ebp)
  402a9a:	ff 15 40 50 40 00    	call   *0x405040
  402aa0:	88 45 d4             	mov    %al,-0x2c(%ebp)
  402aa3:	c7 45 fc 01 00 00 00 	movl   $0x1,-0x4(%ebp)
  402aaa:	84 c0                	test   %al,%al
  402aac:	0f 84 36 01 00 00    	je     0x402be8
  402ab2:	8b 06                	mov    (%esi),%eax
  402ab4:	8b 48 04             	mov    0x4(%eax),%ecx
  402ab7:	8d 45 c8             	lea    -0x38(%ebp),%eax
  402aba:	03 ce                	add    %esi,%ecx
  402abc:	50                   	push   %eax
  402abd:	ff 15 58 50 40 00    	call   *0x405058
  402ac3:	50                   	push   %eax
  402ac4:	c6 45 fc 02          	movb   $0x2,-0x4(%ebp)
  402ac8:	e8 53 fc ff ff       	call   0x402720
  402acd:	8b 4d cc             	mov    -0x34(%ebp),%ecx
  402ad0:	83 c4 04             	add    $0x4,%esp
  402ad3:	8b d8                	mov    %eax,%ebx
  402ad5:	89 5d dc             	mov    %ebx,-0x24(%ebp)
  402ad8:	85 c9                	test   %ecx,%ecx
  402ada:	74 11                	je     0x402aed
  402adc:	8b 01                	mov    (%ecx),%eax
  402ade:	ff 50 08             	call   *0x8(%eax)
  402ae1:	8b c8                	mov    %eax,%ecx
  402ae3:	85 c9                	test   %ecx,%ecx
  402ae5:	74 06                	je     0x402aed
  402ae7:	8b 01                	mov    (%ecx),%eax
  402ae9:	6a 01                	push   $0x1
  402aeb:	ff 10                	call   *(%eax)
  402aed:	83 3d 2c 70 40 00 10 	cmpl   $0x10,0x40702c
  402af4:	b8 18 70 40 00       	mov    $0x407018,%eax
  402af9:	c7 05 28 70 40 00 00 	movl   $0x0,0x407028
  402b00:	00 00 00 
  402b03:	0f 43 05 18 70 40 00 	cmovae 0x407018,%eax
  402b0a:	c6 45 fc 03          	movb   $0x3,-0x4(%ebp)
  402b0e:	c6 00 00             	movb   $0x0,(%eax)
  402b11:	8b 06                	mov    (%esi),%eax
  402b13:	8b 40 04             	mov    0x4(%eax),%eax
  402b16:	83 7c 30 24 00       	cmpl   $0x0,0x24(%eax,%esi,1)
  402b1b:	8b 7c 30 20          	mov    0x20(%eax,%esi,1),%edi
  402b1f:	7c 0e                	jl     0x402b2f
  402b21:	7f 04                	jg     0x402b27
  402b23:	85 ff                	test   %edi,%edi
  402b25:	74 08                	je     0x402b2f
  402b27:	81 ff ff ff ff 7f    	cmp    $0x7fffffff,%edi
  402b2d:	72 05                	jb     0x402b34
  402b2f:	bf ff ff ff 7f       	mov    $0x7fffffff,%edi
  402b34:	8b 4c 30 38          	mov    0x38(%eax,%esi,1),%ecx
  402b38:	ff 15 50 50 40 00    	call   *0x405050
  402b3e:	8b d0                	mov    %eax,%edx
  402b40:	85 ff                	test   %edi,%edi
  402b42:	74 76                	je     0x402bba
  402b44:	83 fa ff             	cmp    $0xffffffff,%edx
  402b47:	75 08                	jne    0x402b51
  402b49:	8d 58 02             	lea    0x2(%eax),%ebx
  402b4c:	e9 8d 00 00 00       	jmp    0x402bde
  402b51:	8b 43 0c             	mov    0xc(%ebx),%eax
  402b54:	0f b6 ca             	movzbl %dl,%ecx
  402b57:	f6 04 48 48          	testb  $0x48,(%eax,%ecx,2)
  402b5b:	75 5d                	jne    0x402bba
  402b5d:	8b 0d 28 70 40 00    	mov    0x407028,%ecx
  402b63:	8b 1d 2c 70 40 00    	mov    0x40702c,%ebx
  402b69:	88 55 ec             	mov    %dl,-0x14(%ebp)
  402b6c:	3b cb                	cmp    %ebx,%ecx
  402b6e:	73 21                	jae    0x402b91
  402b70:	8d 41 01             	lea    0x1(%ecx),%eax
  402b73:	83 fb 10             	cmp    $0x10,%ebx
  402b76:	a3 28 70 40 00       	mov    %eax,0x407028
  402b7b:	b8 18 70 40 00       	mov    $0x407018,%eax
  402b80:	0f 43 05 18 70 40 00 	cmovae 0x407018,%eax
  402b87:	88 14 08             	mov    %dl,(%eax,%ecx,1)
  402b8a:	c6 44 08 01 00       	movb   $0x0,0x1(%eax,%ecx,1)
  402b8f:	eb 10                	jmp    0x402ba1
  402b91:	ff 75 ec             	push   -0x14(%ebp)
  402b94:	c6 45 e0 00          	movb   $0x0,-0x20(%ebp)
  402b98:	ff 75 e0             	push   -0x20(%ebp)
  402b9b:	51                   	push   %ecx
  402b9c:	e8 af 00 00 00       	call   0x402c50
  402ba1:	8b 06                	mov    (%esi),%eax
  402ba3:	4f                   	dec    %edi
  402ba4:	c6 45 eb 01          	movb   $0x1,-0x15(%ebp)
  402ba8:	8b 40 04             	mov    0x4(%eax),%eax
  402bab:	8b 4c 30 38          	mov    0x38(%eax,%esi,1),%ecx
  402baf:	ff 15 44 50 40 00    	call   *0x405044
  402bb5:	8b 5d dc             	mov    -0x24(%ebp),%ebx
  402bb8:	eb 84                	jmp    0x402b3e
  402bba:	33 db                	xor    %ebx,%ebx
  402bbc:	eb 20                	jmp    0x402bde
  402bbe:	8b 55 e4             	mov    -0x1c(%ebp),%edx
  402bc1:	6a 01                	push   $0x1
  402bc3:	6a 04                	push   $0x4
  402bc5:	8b 02                	mov    (%edx),%eax
  402bc7:	8b 48 04             	mov    0x4(%eax),%ecx
  402bca:	03 ca                	add    %edx,%ecx
  402bcc:	ff 15 4c 50 40 00    	call   *0x40504c
  402bd2:	b8 d8 2b 40 00       	mov    $0x402bd8,%eax
  402bd7:	c3                   	ret
  402bd8:	8b 5d d8             	mov    -0x28(%ebp),%ebx
  402bdb:	8b 75 e4             	mov    -0x1c(%ebp),%esi
  402bde:	c7 45 fc 01 00 00 00 	movl   $0x1,-0x4(%ebp)
  402be5:	8b 7d d0             	mov    -0x30(%ebp),%edi
  402be8:	80 7d eb 00          	cmpb   $0x0,-0x15(%ebp)
  402bec:	8b 06                	mov    (%esi),%eax
  402bee:	8b 40 04             	mov    0x4(%eax),%eax
  402bf1:	c7 44 30 20 00 00 00 	movl   $0x0,0x20(%eax,%esi,1)
  402bf8:	00 
  402bf9:	c7 44 30 24 00 00 00 	movl   $0x0,0x24(%eax,%esi,1)
  402c00:	00 
  402c01:	75 03                	jne    0x402c06
  402c03:	83 cb 02             	or     $0x2,%ebx
  402c06:	8b 06                	mov    (%esi),%eax
  402c08:	6a 00                	push   $0x0
  402c0a:	53                   	push   %ebx
  402c0b:	8b 48 04             	mov    0x4(%eax),%ecx
  402c0e:	03 ce                	add    %esi,%ecx
  402c10:	ff 15 4c 50 40 00    	call   *0x40504c
  402c16:	c7 45 fc 05 00 00 00 	movl   $0x5,-0x4(%ebp)
  402c1d:	8b 0f                	mov    (%edi),%ecx
  402c1f:	8b 49 04             	mov    0x4(%ecx),%ecx
  402c22:	8b 4c 39 38          	mov    0x38(%ecx,%edi,1),%ecx
  402c26:	85 c9                	test   %ecx,%ecx
  402c28:	74 05                	je     0x402c2f
  402c2a:	8b 11                	mov    (%ecx),%edx
  402c2c:	ff 52 08             	call   *0x8(%edx)
  402c2f:	8b c6                	mov    %esi,%eax
  402c31:	8b 4d f4             	mov    -0xc(%ebp),%ecx
  402c34:	64 89 0d 00 00 00 00 	mov    %ecx,%fs:0x0
  402c3b:	59                   	pop    %ecx
  402c3c:	5f                   	pop    %edi
  402c3d:	5e                   	pop    %esi
  402c3e:	5b                   	pop    %ebx
  402c3f:	8b e5                	mov    %ebp,%esp
  402c41:	5d                   	pop    %ebp
  402c42:	c3                   	ret
  402c43:	cc                   	int3
  402c44:	cc                   	int3
  402c45:	cc                   	int3
  402c46:	cc                   	int3
  402c47:	cc                   	int3
  402c48:	cc                   	int3
  402c49:	cc                   	int3
  402c4a:	cc                   	int3
  402c4b:	cc                   	int3
  402c4c:	cc                   	int3
  402c4d:	cc                   	int3
  402c4e:	cc                   	int3
  402c4f:	cc                   	int3
  402c50:	55                   	push   %ebp
  402c51:	8b ec                	mov    %esp,%ebp
  402c53:	51                   	push   %ecx
  402c54:	53                   	push   %ebx
  402c55:	8b 1d 28 70 40 00    	mov    0x407028,%ebx
  402c5b:	b9 ff ff ff 7f       	mov    $0x7fffffff,%ecx
  402c60:	8b c1                	mov    %ecx,%eax
  402c62:	2b c3                	sub    %ebx,%eax
  402c64:	56                   	push   %esi
  402c65:	57                   	push   %edi
  402c66:	83 f8 01             	cmp    $0x1,%eax
  402c69:	0f 82 1a 01 00 00    	jb     0x402d89
  402c6f:	a1 2c 70 40 00       	mov    0x40702c,%eax
  402c74:	8d 73 01             	lea    0x1(%ebx),%esi
  402c77:	83 ce 0f             	or     $0xf,%esi
  402c7a:	89 45 fc             	mov    %eax,-0x4(%ebp)
  402c7d:	3b f1                	cmp    %ecx,%esi
  402c7f:	76 26                	jbe    0x402ca7
  402c81:	8b f1                	mov    %ecx,%esi
  402c83:	b8 00 00 00 80       	mov    $0x80000000,%eax
  402c88:	83 c0 23             	add    $0x23,%eax
  402c8b:	50                   	push   %eax
  402c8c:	e8 45 03 00 00       	call   0x402fd6
  402c91:	83 c4 04             	add    $0x4,%esp
  402c94:	85 c0                	test   %eax,%eax
  402c96:	0f 84 ba 00 00 00    	je     0x402d56
  402c9c:	8d 78 23             	lea    0x23(%eax),%edi
  402c9f:	83 e7 e0             	and    $0xffffffe0,%edi
  402ca2:	89 47 fc             	mov    %eax,-0x4(%edi)
  402ca5:	eb 43                	jmp    0x402cea
  402ca7:	8b d0                	mov    %eax,%edx
  402ca9:	d1 ea                	shr    %edx
  402cab:	2b ca                	sub    %edx,%ecx
  402cad:	3b c1                	cmp    %ecx,%eax
  402caf:	76 07                	jbe    0x402cb8
  402cb1:	be ff ff ff 7f       	mov    $0x7fffffff,%esi
  402cb6:	eb cb                	jmp    0x402c83
  402cb8:	03 c2                	add    %edx,%eax
  402cba:	3b f0                	cmp    %eax,%esi
  402cbc:	0f 42 f0             	cmovb  %eax,%esi
  402cbf:	8d 4e 01             	lea    0x1(%esi),%ecx
  402cc2:	81 f9 00 10 00 00    	cmp    $0x1000,%ecx
  402cc8:	72 0d                	jb     0x402cd7
  402cca:	8d 41 23             	lea    0x23(%ecx),%eax
  402ccd:	3b c1                	cmp    %ecx,%eax
  402ccf:	0f 86 b9 00 00 00    	jbe    0x402d8e
  402cd5:	eb b4                	jmp    0x402c8b
  402cd7:	85 c9                	test   %ecx,%ecx
  402cd9:	74 0d                	je     0x402ce8
  402cdb:	51                   	push   %ecx
  402cdc:	e8 f5 02 00 00       	call   0x402fd6
  402ce1:	83 c4 04             	add    $0x4,%esp
  402ce4:	8b f8                	mov    %eax,%edi
  402ce6:	eb 02                	jmp    0x402cea
  402ce8:	33 ff                	xor    %edi,%edi
  402cea:	83 7d fc 10          	cmpl   $0x10,-0x4(%ebp)
  402cee:	8d 43 01             	lea    0x1(%ebx),%eax
  402cf1:	a3 28 70 40 00       	mov    %eax,0x407028
  402cf6:	89 35 2c 70 40 00    	mov    %esi,0x40702c
  402cfc:	53                   	push   %ebx
  402cfd:	72 5d                	jb     0x402d5c
  402cff:	8b 35 18 70 40 00    	mov    0x407018,%esi
  402d05:	56                   	push   %esi
  402d06:	57                   	push   %edi
  402d07:	e8 08 10 00 00       	call   0x403d14
  402d0c:	8b 4d fc             	mov    -0x4(%ebp),%ecx
  402d0f:	83 c4 0c             	add    $0xc,%esp
  402d12:	8a 45 10             	mov    0x10(%ebp),%al
  402d15:	41                   	inc    %ecx
  402d16:	88 04 1f             	mov    %al,(%edi,%ebx,1)
  402d19:	c6 44 1f 01 00       	movb   $0x0,0x1(%edi,%ebx,1)
  402d1e:	81 f9 00 10 00 00    	cmp    $0x1000,%ecx
  402d24:	72 12                	jb     0x402d38
  402d26:	8b 56 fc             	mov    -0x4(%esi),%edx
  402d29:	83 c1 23             	add    $0x23,%ecx
  402d2c:	2b f2                	sub    %edx,%esi
  402d2e:	8d 46 fc             	lea    -0x4(%esi),%eax
  402d31:	83 f8 1f             	cmp    $0x1f,%eax
  402d34:	77 20                	ja     0x402d56
  402d36:	8b f2                	mov    %edx,%esi
  402d38:	51                   	push   %ecx
  402d39:	56                   	push   %esi
  402d3a:	e8 18 05 00 00       	call   0x403257
  402d3f:	83 c4 08             	add    $0x8,%esp
  402d42:	89 3d 18 70 40 00    	mov    %edi,0x407018
  402d48:	b8 18 70 40 00       	mov    $0x407018,%eax
  402d4d:	5f                   	pop    %edi
  402d4e:	5e                   	pop    %esi
  402d4f:	5b                   	pop    %ebx
  402d50:	8b e5                	mov    %ebp,%esp
  402d52:	5d                   	pop    %ebp
  402d53:	c2 0c 00             	ret    $0xc
  402d56:	ff 15 18 51 40 00    	call   *0x405118
  402d5c:	68 18 70 40 00       	push   $0x407018
  402d61:	57                   	push   %edi
  402d62:	e8 ad 0f 00 00       	call   0x403d14
  402d67:	8a 45 10             	mov    0x10(%ebp),%al
  402d6a:	83 c4 0c             	add    $0xc,%esp
  402d6d:	88 04 1f             	mov    %al,(%edi,%ebx,1)
  402d70:	b8 18 70 40 00       	mov    $0x407018,%eax
  402d75:	c6 44 1f 01 00       	movb   $0x0,0x1(%edi,%ebx,1)
  402d7a:	89 3d 18 70 40 00    	mov    %edi,0x407018
  402d80:	5f                   	pop    %edi
  402d81:	5e                   	pop    %esi
  402d82:	5b                   	pop    %ebx
  402d83:	8b e5                	mov    %ebp,%esp
  402d85:	5d                   	pop    %ebp
  402d86:	c2 0c 00             	ret    $0xc
  402d89:	e8 72 e4 ff ff       	call   0x401200
  402d8e:	e8 cd e3 ff ff       	call   0x401160
  402d93:	cc                   	int3
  402d94:	cc                   	int3
  402d95:	cc                   	int3
  402d96:	cc                   	int3
  402d97:	cc                   	int3
  402d98:	cc                   	int3
  402d99:	cc                   	int3
  402d9a:	cc                   	int3
  402d9b:	cc                   	int3
  402d9c:	cc                   	int3
  402d9d:	cc                   	int3
  402d9e:	cc                   	int3
  402d9f:	cc                   	int3
  402da0:	55                   	push   %ebp
  402da1:	8b ec                	mov    %esp,%ebp
  402da3:	6a ff                	push   $0xffffffff
  402da5:	68 80 3e 40 00       	push   $0x403e80
  402daa:	64 a1 00 00 00 00    	mov    %fs:0x0,%eax
  402db0:	50                   	push   %eax
  402db1:	a1 04 70 40 00       	mov    0x407004,%eax
  402db6:	33 c5                	xor    %ebp,%eax
  402db8:	50                   	push   %eax
  402db9:	8d 45 f4             	lea    -0xc(%ebp),%eax
  402dbc:	64 a3 00 00 00 00    	mov    %eax,%fs:0x0
  402dc2:	c7 45 fc 00 00 00 00 	movl   $0x0,-0x4(%ebp)
  402dc9:	8b 09                	mov    (%ecx),%ecx
  402dcb:	8b 01                	mov    (%ecx),%eax
  402dcd:	8b 40 04             	mov    0x4(%eax),%eax
  402dd0:	8b 4c 08 38          	mov    0x38(%eax,%ecx,1),%ecx
  402dd4:	85 c9                	test   %ecx,%ecx
  402dd6:	74 05                	je     0x402ddd
  402dd8:	8b 01                	mov    (%ecx),%eax
  402dda:	ff 50 08             	call   *0x8(%eax)
  402ddd:	8b 4d f4             	mov    -0xc(%ebp),%ecx
  402de0:	64 89 0d 00 00 00 00 	mov    %ecx,%fs:0x0
  402de7:	59                   	pop    %ecx
  402de8:	8b e5                	mov    %ebp,%esp
  402dea:	5d                   	pop    %ebp
  402deb:	c3                   	ret
  402dec:	cc                   	int3
  402ded:	cc                   	int3
  402dee:	cc                   	int3
  402def:	cc                   	int3
  402df0:	cc                   	int3
  402df1:	cc                   	int3
  402df2:	cc                   	int3
  402df3:	cc                   	int3
  402df4:	cc                   	int3
  402df5:	cc                   	int3
  402df6:	cc                   	int3
  402df7:	cc                   	int3
  402df8:	cc                   	int3
  402df9:	cc                   	int3
  402dfa:	cc                   	int3
  402dfb:	cc                   	int3
  402dfc:	cc                   	int3
  402dfd:	cc                   	int3
  402dfe:	cc                   	int3
  402dff:	cc                   	int3
  402e00:	55                   	push   %ebp
  402e01:	8b ec                	mov    %esp,%ebp
  402e03:	6a ff                	push   $0xffffffff
  402e05:	68 a0 3e 40 00       	push   $0x403ea0
  402e0a:	64 a1 00 00 00 00    	mov    %fs:0x0,%eax
  402e10:	50                   	push   %eax
  402e11:	a1 04 70 40 00       	mov    0x407004,%eax
  402e16:	33 c5                	xor    %ebp,%eax
  402e18:	50                   	push   %eax
  402e19:	8d 45 f4             	lea    -0xc(%ebp),%eax
  402e1c:	64 a3 00 00 00 00    	mov    %eax,%fs:0x0
  402e22:	8b 09                	mov    (%ecx),%ecx
  402e24:	8b 01                	mov    (%ecx),%eax
  402e26:	8b 40 04             	mov    0x4(%eax),%eax
  402e29:	8b 4c 08 38          	mov    0x38(%eax,%ecx,1),%ecx
  402e2d:	85 c9                	test   %ecx,%ecx
  402e2f:	74 05                	je     0x402e36
  402e31:	8b 01                	mov    (%ecx),%eax
  402e33:	ff 50 08             	call   *0x8(%eax)
  402e36:	8b 4d f4             	mov    -0xc(%ebp),%ecx
  402e39:	64 89 0d 00 00 00 00 	mov    %ecx,%fs:0x0
  402e40:	59                   	pop    %ecx
  402e41:	8b e5                	mov    %ebp,%esp
  402e43:	5d                   	pop    %ebp
  402e44:	c3                   	ret
  402e45:	cc                   	int3
  402e46:	cc                   	int3
  402e47:	cc                   	int3
  402e48:	cc                   	int3
  402e49:	cc                   	int3
  402e4a:	cc                   	int3
  402e4b:	cc                   	int3
  402e4c:	cc                   	int3
  402e4d:	cc                   	int3
  402e4e:	cc                   	int3
  402e4f:	cc                   	int3
  402e50:	55                   	push   %ebp
  402e51:	8b ec                	mov    %esp,%ebp
  402e53:	6a ff                	push   $0xffffffff
  402e55:	68 c0 3e 40 00       	push   $0x403ec0
  402e5a:	64 a1 00 00 00 00    	mov    %fs:0x0,%eax
  402e60:	50                   	push   %eax
  402e61:	56                   	push   %esi
  402e62:	a1 04 70 40 00       	mov    0x407004,%eax
  402e67:	33 c5                	xor    %ebp,%eax
  402e69:	50                   	push   %eax
  402e6a:	8d 45 f4             	lea    -0xc(%ebp),%eax
  402e6d:	64 a3 00 00 00 00    	mov    %eax,%fs:0x0
  402e73:	8b f1                	mov    %ecx,%esi
  402e75:	ff 15 80 50 40 00    	call   *0x405080
  402e7b:	84 c0                	test   %al,%al
  402e7d:	75 08                	jne    0x402e87
  402e7f:	8b 0e                	mov    (%esi),%ecx
  402e81:	ff 15 38 50 40 00    	call   *0x405038
  402e87:	c7 45 fc 00 00 00 00 	movl   $0x0,-0x4(%ebp)
  402e8e:	8b 0e                	mov    (%esi),%ecx
  402e90:	8b 01                	mov    (%ecx),%eax
  402e92:	8b 40 04             	mov    0x4(%eax),%eax
  402e95:	8b 4c 08 38          	mov    0x38(%eax,%ecx,1),%ecx
  402e99:	85 c9                	test   %ecx,%ecx
  402e9b:	74 05                	je     0x402ea2
  402e9d:	8b 01                	mov    (%ecx),%eax
  402e9f:	ff 50 08             	call   *0x8(%eax)
  402ea2:	8b 4d f4             	mov    -0xc(%ebp),%ecx
  402ea5:	64 89 0d 00 00 00 00 	mov    %ecx,%fs:0x0
  402eac:	59                   	pop    %ecx
  402ead:	5e                   	pop    %esi
  402eae:	8b e5                	mov    %ebp,%esp
  402eb0:	5d                   	pop    %ebp
  402eb1:	c3                   	ret
  402eb2:	cc                   	int3
  402eb3:	cc                   	int3
  402eb4:	cc                   	int3
  402eb5:	cc                   	int3
  402eb6:	cc                   	int3
  402eb7:	cc                   	int3
  402eb8:	cc                   	int3
  402eb9:	cc                   	int3
  402eba:	cc                   	int3
  402ebb:	cc                   	int3
  402ebc:	cc                   	int3
  402ebd:	cc                   	int3
  402ebe:	cc                   	int3
  402ebf:	cc                   	int3
  402ec0:	8b 09                	mov    (%ecx),%ecx
  402ec2:	85 c9                	test   %ecx,%ecx
  402ec4:	74 06                	je     0x402ecc
  402ec6:	8b 01                	mov    (%ecx),%eax
  402ec8:	6a 01                	push   $0x1
  402eca:	ff 10                	call   *(%eax)
  402ecc:	c3                   	ret
  402ecd:	cc                   	int3
  402ece:	cc                   	int3
  402ecf:	cc                   	int3
  402ed0:	8b 01                	mov    (%ecx),%eax
  402ed2:	85 c0                	test   %eax,%eax
  402ed4:	74 0b                	je     0x402ee1
  402ed6:	6a 04                	push   $0x4
  402ed8:	50                   	push   %eax
  402ed9:	e8 79 03 00 00       	call   0x403257
  402ede:	83 c4 08             	add    $0x8,%esp
  402ee1:	c3                   	ret
  402ee2:	cc                   	int3
  402ee3:	cc                   	int3
  402ee4:	cc                   	int3
  402ee5:	cc                   	int3
  402ee6:	cc                   	int3
  402ee7:	cc                   	int3
  402ee8:	cc                   	int3
  402ee9:	cc                   	int3
  402eea:	cc                   	int3
  402eeb:	cc                   	int3
  402eec:	cc                   	int3
  402eed:	cc                   	int3
  402eee:	cc                   	int3
  402eef:	cc                   	int3
  402ef0:	55                   	push   %ebp
  402ef1:	8b ec                	mov    %esp,%ebp
  402ef3:	6a ff                	push   $0xffffffff
  402ef5:	68 e0 3e 40 00       	push   $0x403ee0
  402efa:	64 a1 00 00 00 00    	mov    %fs:0x0,%eax
  402f00:	50                   	push   %eax
  402f01:	56                   	push   %esi
  402f02:	a1 04 70 40 00       	mov    0x407004,%eax
  402f07:	33 c5                	xor    %ebp,%eax
  402f09:	50                   	push   %eax
  402f0a:	8d 45 f4             	lea    -0xc(%ebp),%eax
  402f0d:	64 a3 00 00 00 00    	mov    %eax,%fs:0x0
  402f13:	8b 75 08             	mov    0x8(%ebp),%esi
  402f16:	8b 06                	mov    (%esi),%eax
  402f18:	ff d0                	call   *%eax
  402f1a:	ff 15 5c 50 40 00    	call   *0x40505c
  402f20:	6a 04                	push   $0x4
  402f22:	56                   	push   %esi
  402f23:	e8 2f 03 00 00       	call   0x403257
  402f28:	83 c4 08             	add    $0x8,%esp
  402f2b:	33 c0                	xor    %eax,%eax
  402f2d:	8b 4d f4             	mov    -0xc(%ebp),%ecx
  402f30:	64 89 0d 00 00 00 00 	mov    %ecx,%fs:0x0
  402f37:	59                   	pop    %ecx
  402f38:	5e                   	pop    %esi
  402f39:	8b e5                	mov    %ebp,%esp
  402f3b:	5d                   	pop    %ebp
  402f3c:	c2 04 00             	ret    $0x4
  402f3f:	cc                   	int3
  402f40:	cc                   	int3
  402f41:	cc                   	int3
  402f42:	cc                   	int3
  402f43:	cc                   	int3
  402f44:	56                   	push   %esi
  402f45:	57                   	push   %edi
  402f46:	8b 79 04             	mov    0x4(%ecx),%edi
  402f49:	8b 07                	mov    (%edi),%eax
  402f4b:	8b 70 08             	mov    0x8(%eax),%esi
  402f4e:	8b ce                	mov    %esi,%ecx
  402f50:	ff 15 50 51 40 00    	call   *0x405150
  402f56:	8b cf                	mov    %edi,%ecx
  402f58:	ff d6                	call   *%esi
  402f5a:	8b f8                	mov    %eax,%edi
  402f5c:	85 ff                	test   %edi,%edi
  402f5e:	74 12                	je     0x402f72
  402f60:	8b 0f                	mov    (%edi),%ecx
  402f62:	6a 01                	push   $0x1
  402f64:	8b 31                	mov    (%ecx),%esi
  402f66:	8b ce                	mov    %esi,%ecx
  402f68:	ff 15 50 51 40 00    	call   *0x405150
  402f6e:	8b cf                	mov    %edi,%ecx
  402f70:	ff d6                	call   *%esi
  402f72:	5f                   	pop    %edi
  402f73:	5e                   	pop    %esi
  402f74:	c3                   	ret
  402f75:	56                   	push   %esi
  402f76:	eb 18                	jmp    0x402f90
  402f78:	8b 06                	mov    (%esi),%eax
  402f7a:	8b ce                	mov    %esi,%ecx
  402f7c:	a3 c8 70 40 00       	mov    %eax,0x4070c8
  402f81:	e8 be ff ff ff       	call   0x402f44
  402f86:	6a 08                	push   $0x8
  402f88:	56                   	push   %esi
  402f89:	e8 c9 02 00 00       	call   0x403257
  402f8e:	59                   	pop    %ecx
  402f8f:	59                   	pop    %ecx
  402f90:	8b 35 c8 70 40 00    	mov    0x4070c8,%esi
  402f96:	85 f6                	test   %esi,%esi
  402f98:	75 de                	jne    0x402f78
  402f9a:	5e                   	pop    %esi
  402f9b:	c3                   	ret
  402f9c:	55                   	push   %ebp
  402f9d:	8b ec                	mov    %esp,%ebp
  402f9f:	51                   	push   %ecx
  402fa0:	6a 08                	push   $0x8
  402fa2:	e8 2f 00 00 00       	call   0x402fd6
  402fa7:	89 45 fc             	mov    %eax,-0x4(%ebp)
  402faa:	59                   	pop    %ecx
  402fab:	85 c0                	test   %eax,%eax
  402fad:	74 10                	je     0x402fbf
  402faf:	8b 0d c8 70 40 00    	mov    0x4070c8,%ecx
  402fb5:	89 08                	mov    %ecx,(%eax)
  402fb7:	8b 4d 08             	mov    0x8(%ebp),%ecx
  402fba:	89 48 04             	mov    %ecx,0x4(%eax)
  402fbd:	eb 02                	jmp    0x402fc1
  402fbf:	33 c0                	xor    %eax,%eax
  402fc1:	a3 c8 70 40 00       	mov    %eax,0x4070c8
  402fc6:	c9                   	leave
  402fc7:	c3                   	ret
  402fc8:	3b 0d 04 70 40 00    	cmp    0x407004,%ecx
  402fce:	75 01                	jne    0x402fd1
  402fd0:	c3                   	ret
  402fd1:	e9 2e 05 00 00       	jmp    0x403504
  402fd6:	55                   	push   %ebp
  402fd7:	8b ec                	mov    %esp,%ebp
  402fd9:	eb 0d                	jmp    0x402fe8
  402fdb:	ff 75 08             	push   0x8(%ebp)
  402fde:	e8 23 0c 00 00       	call   0x403c06
  402fe3:	59                   	pop    %ecx
  402fe4:	85 c0                	test   %eax,%eax
  402fe6:	74 0f                	je     0x402ff7
  402fe8:	ff 75 08             	push   0x8(%ebp)
  402feb:	e8 1c 0c 00 00       	call   0x403c0c
  402ff0:	59                   	pop    %ecx
  402ff1:	85 c0                	test   %eax,%eax
  402ff3:	74 e6                	je     0x402fdb
  402ff5:	5d                   	pop    %ebp
  402ff6:	c3                   	ret
  402ff7:	83 7d 08 ff          	cmpl   $0xffffffff,0x8(%ebp)
  402ffb:	0f 84 5f e1 ff ff    	je     0x401160
  403001:	e9 10 06 00 00       	jmp    0x403616
  403006:	55                   	push   %ebp
  403007:	8b ec                	mov    %esp,%ebp
  403009:	8b 45 08             	mov    0x8(%ebp),%eax
  40300c:	56                   	push   %esi
  40300d:	8b 48 3c             	mov    0x3c(%eax),%ecx
  403010:	03 c8                	add    %eax,%ecx
  403012:	0f b7 41 14          	movzwl 0x14(%ecx),%eax
  403016:	8d 51 18             	lea    0x18(%ecx),%edx
  403019:	03 d0                	add    %eax,%edx
  40301b:	0f b7 41 06          	movzwl 0x6(%ecx),%eax
  40301f:	6b f0 28             	imul   $0x28,%eax,%esi
  403022:	03 f2                	add    %edx,%esi
  403024:	3b d6                	cmp    %esi,%edx
  403026:	74 19                	je     0x403041
  403028:	8b 4d 0c             	mov    0xc(%ebp),%ecx
  40302b:	3b 4a 0c             	cmp    0xc(%edx),%ecx
  40302e:	72 0a                	jb     0x40303a
  403030:	8b 42 08             	mov    0x8(%edx),%eax
  403033:	03 42 0c             	add    0xc(%edx),%eax
  403036:	3b c8                	cmp    %eax,%ecx
  403038:	72 0c                	jb     0x403046
  40303a:	83 c2 28             	add    $0x28,%edx
  40303d:	3b d6                	cmp    %esi,%edx
  40303f:	75 ea                	jne    0x40302b
  403041:	33 c0                	xor    %eax,%eax
  403043:	5e                   	pop    %esi
  403044:	5d                   	pop    %ebp
  403045:	c3                   	ret
  403046:	8b c2                	mov    %edx,%eax
  403048:	eb f9                	jmp    0x403043
  40304a:	56                   	push   %esi
  40304b:	e8 bb 07 00 00       	call   0x40380b
  403050:	85 c0                	test   %eax,%eax
  403052:	74 20                	je     0x403074
  403054:	64 a1 18 00 00 00    	mov    %fs:0x18,%eax
  40305a:	be d4 70 40 00       	mov    $0x4070d4,%esi
  40305f:	8b 50 04             	mov    0x4(%eax),%edx
  403062:	eb 04                	jmp    0x403068
  403064:	3b d0                	cmp    %eax,%edx
  403066:	74 10                	je     0x403078
  403068:	33 c0                	xor    %eax,%eax
  40306a:	8b ca                	mov    %edx,%ecx
  40306c:	f0 0f b1 0e          	lock cmpxchg %ecx,(%esi)
  403070:	85 c0                	test   %eax,%eax
  403072:	75 f0                	jne    0x403064
  403074:	32 c0                	xor    %al,%al
  403076:	5e                   	pop    %esi
  403077:	c3                   	ret
  403078:	b0 01                	mov    $0x1,%al
  40307a:	5e                   	pop    %esi
  40307b:	c3                   	ret
  40307c:	55                   	push   %ebp
  40307d:	8b ec                	mov    %esp,%ebp
  40307f:	83 7d 08 00          	cmpl   $0x0,0x8(%ebp)
  403083:	75 07                	jne    0x40308c
  403085:	c6 05 d8 70 40 00 01 	movb   $0x1,0x4070d8
  40308c:	e8 a2 05 00 00       	call   0x403633
  403091:	e8 7d 0a 00 00       	call   0x403b13
  403096:	84 c0                	test   %al,%al
  403098:	75 04                	jne    0x40309e
  40309a:	32 c0                	xor    %al,%al
  40309c:	5d                   	pop    %ebp
  40309d:	c3                   	ret
  40309e:	e8 70 0a 00 00       	call   0x403b13
  4030a3:	84 c0                	test   %al,%al
  4030a5:	75 0a                	jne    0x4030b1
  4030a7:	6a 00                	push   $0x0
  4030a9:	e8 65 0a 00 00       	call   0x403b13
  4030ae:	59                   	pop    %ecx
  4030af:	eb e9                	jmp    0x40309a
  4030b1:	b0 01                	mov    $0x1,%al
  4030b3:	5d                   	pop    %ebp
  4030b4:	c3                   	ret
  4030b5:	55                   	push   %ebp
  4030b6:	8b ec                	mov    %esp,%ebp
  4030b8:	80 3d d9 70 40 00 00 	cmpb   $0x0,0x4070d9
  4030bf:	74 04                	je     0x4030c5
  4030c1:	b0 01                	mov    $0x1,%al
  4030c3:	5d                   	pop    %ebp
  4030c4:	c3                   	ret
  4030c5:	56                   	push   %esi
  4030c6:	8b 75 08             	mov    0x8(%ebp),%esi
  4030c9:	85 f6                	test   %esi,%esi
  4030cb:	74 05                	je     0x4030d2
  4030cd:	83 fe 01             	cmp    $0x1,%esi
  4030d0:	75 62                	jne    0x403134
  4030d2:	e8 34 07 00 00       	call   0x40380b
  4030d7:	85 c0                	test   %eax,%eax
  4030d9:	74 26                	je     0x403101
  4030db:	85 f6                	test   %esi,%esi
  4030dd:	75 22                	jne    0x403101
  4030df:	68 dc 70 40 00       	push   $0x4070dc
  4030e4:	e8 35 0b 00 00       	call   0x403c1e
  4030e9:	59                   	pop    %ecx
  4030ea:	85 c0                	test   %eax,%eax
  4030ec:	75 0f                	jne    0x4030fd
  4030ee:	68 e8 70 40 00       	push   $0x4070e8
  4030f3:	e8 26 0b 00 00       	call   0x403c1e
  4030f8:	59                   	pop    %ecx
  4030f9:	85 c0                	test   %eax,%eax
  4030fb:	74 2b                	je     0x403128
  4030fd:	32 c0                	xor    %al,%al
  4030ff:	eb 30                	jmp    0x403131
  403101:	83 c9 ff             	or     $0xffffffff,%ecx
  403104:	89 0d dc 70 40 00    	mov    %ecx,0x4070dc
  40310a:	89 0d e0 70 40 00    	mov    %ecx,0x4070e0
  403110:	89 0d e4 70 40 00    	mov    %ecx,0x4070e4
  403116:	89 0d e8 70 40 00    	mov    %ecx,0x4070e8
  40311c:	89 0d ec 70 40 00    	mov    %ecx,0x4070ec
  403122:	89 0d f0 70 40 00    	mov    %ecx,0x4070f0
  403128:	c6 05 d9 70 40 00 01 	movb   $0x1,0x4070d9
  40312f:	b0 01                	mov    $0x1,%al
  403131:	5e                   	pop    %esi
  403132:	5d                   	pop    %ebp
  403133:	c3                   	ret
  403134:	6a 05                	push   $0x5
  403136:	e8 dc 06 00 00       	call   0x403817
  40313b:	cc                   	int3
  40313c:	6a 08                	push   $0x8
  40313e:	68 48 5b 40 00       	push   $0x405b48
  403143:	e8 a8 08 00 00       	call   0x4039f0
  403148:	83 65 fc 00          	andl   $0x0,-0x4(%ebp)
  40314c:	b8 4d 5a 00 00       	mov    $0x5a4d,%eax
  403151:	66 39 05 00 00 40 00 	cmp    %ax,0x400000
  403158:	75 5d                	jne    0x4031b7
  40315a:	a1 3c 00 40 00       	mov    0x40003c,%eax
  40315f:	81 b8 00 00 40 00 50 	cmpl   $0x4550,0x400000(%eax)
  403166:	45 00 00 
  403169:	75 4c                	jne    0x4031b7
  40316b:	b9 0b 01 00 00       	mov    $0x10b,%ecx
  403170:	66 39 88 18 00 40 00 	cmp    %cx,0x400018(%eax)
  403177:	75 3e                	jne    0x4031b7
  403179:	8b 45 08             	mov    0x8(%ebp),%eax
  40317c:	b9 00 00 40 00       	mov    $0x400000,%ecx
  403181:	2b c1                	sub    %ecx,%eax
  403183:	50                   	push   %eax
  403184:	51                   	push   %ecx
  403185:	e8 7c fe ff ff       	call   0x403006
  40318a:	59                   	pop    %ecx
  40318b:	59                   	pop    %ecx
  40318c:	85 c0                	test   %eax,%eax
  40318e:	74 27                	je     0x4031b7
  403190:	83 78 24 00          	cmpl   $0x0,0x24(%eax)
  403194:	7c 21                	jl     0x4031b7
  403196:	c7 45 fc fe ff ff ff 	movl   $0xfffffffe,-0x4(%ebp)
  40319d:	b0 01                	mov    $0x1,%al
  40319f:	eb 1f                	jmp    0x4031c0
  4031a1:	8b 45 ec             	mov    -0x14(%ebp),%eax
  4031a4:	8b 00                	mov    (%eax),%eax
  4031a6:	33 c9                	xor    %ecx,%ecx
  4031a8:	81 38 05 00 00 c0    	cmpl   $0xc0000005,(%eax)
  4031ae:	0f 94 c1             	sete   %cl
  4031b1:	8b c1                	mov    %ecx,%eax
  4031b3:	c3                   	ret
  4031b4:	8b 65 e8             	mov    -0x18(%ebp),%esp
  4031b7:	c7 45 fc fe ff ff ff 	movl   $0xfffffffe,-0x4(%ebp)
  4031be:	32 c0                	xor    %al,%al
  4031c0:	8b 4d f0             	mov    -0x10(%ebp),%ecx
  4031c3:	64 89 0d 00 00 00 00 	mov    %ecx,%fs:0x0
  4031ca:	59                   	pop    %ecx
  4031cb:	5f                   	pop    %edi
  4031cc:	5e                   	pop    %esi
  4031cd:	5b                   	pop    %ebx
  4031ce:	c9                   	leave
  4031cf:	c3                   	ret
  4031d0:	55                   	push   %ebp
  4031d1:	8b ec                	mov    %esp,%ebp
  4031d3:	e8 33 06 00 00       	call   0x40380b
  4031d8:	85 c0                	test   %eax,%eax
  4031da:	74 0f                	je     0x4031eb
  4031dc:	80 7d 08 00          	cmpb   $0x0,0x8(%ebp)
  4031e0:	75 09                	jne    0x4031eb
  4031e2:	33 c0                	xor    %eax,%eax
  4031e4:	b9 d4 70 40 00       	mov    $0x4070d4,%ecx
  4031e9:	87 01                	xchg   %eax,(%ecx)
  4031eb:	5d                   	pop    %ebp
  4031ec:	c3                   	ret
  4031ed:	55                   	push   %ebp
  4031ee:	8b ec                	mov    %esp,%ebp
  4031f0:	80 3d d8 70 40 00 00 	cmpb   $0x0,0x4070d8
  4031f7:	74 06                	je     0x4031ff
  4031f9:	80 7d 0c 00          	cmpb   $0x0,0xc(%ebp)
  4031fd:	75 12                	jne    0x403211
  4031ff:	ff 75 08             	push   0x8(%ebp)
  403202:	e8 0c 09 00 00       	call   0x403b13
  403207:	ff 75 08             	push   0x8(%ebp)
  40320a:	e8 04 09 00 00       	call   0x403b13
  40320f:	59                   	pop    %ecx
  403210:	59                   	pop    %ecx
  403211:	b0 01                	mov    $0x1,%al
  403213:	5d                   	pop    %ebp
  403214:	c3                   	ret
  403215:	55                   	push   %ebp
  403216:	8b ec                	mov    %esp,%ebp
  403218:	83 3d dc 70 40 00 ff 	cmpl   $0xffffffff,0x4070dc
  40321f:	ff 75 08             	push   0x8(%ebp)
  403222:	75 07                	jne    0x40322b
  403224:	e8 01 0a 00 00       	call   0x403c2a
  403229:	eb 0b                	jmp    0x403236
  40322b:	68 dc 70 40 00       	push   $0x4070dc
  403230:	e8 ef 09 00 00       	call   0x403c24
  403235:	59                   	pop    %ecx
  403236:	f7 d8                	neg    %eax
  403238:	59                   	pop    %ecx
  403239:	1b c0                	sbb    %eax,%eax
  40323b:	f7 d0                	not    %eax
  40323d:	23 45 08             	and    0x8(%ebp),%eax
  403240:	5d                   	pop    %ebp
  403241:	c3                   	ret
  403242:	55                   	push   %ebp
  403243:	8b ec                	mov    %esp,%ebp
  403245:	ff 75 08             	push   0x8(%ebp)
  403248:	e8 c8 ff ff ff       	call   0x403215
  40324d:	f7 d8                	neg    %eax
  40324f:	59                   	pop    %ecx
  403250:	1b c0                	sbb    %eax,%eax
  403252:	f7 d8                	neg    %eax
  403254:	48                   	dec    %eax
  403255:	5d                   	pop    %ebp
  403256:	c3                   	ret
  403257:	55                   	push   %ebp
  403258:	8b ec                	mov    %esp,%ebp
  40325a:	ff 75 08             	push   0x8(%ebp)
  40325d:	e8 02 08 00 00       	call   0x403a64
  403262:	59                   	pop    %ecx
  403263:	5d                   	pop    %ebp
  403264:	c3                   	ret
  403265:	55                   	push   %ebp
  403266:	8b ec                	mov    %esp,%ebp
  403268:	f6 45 08 01          	testb  $0x1,0x8(%ebp)
  40326c:	56                   	push   %esi
  40326d:	8b f1                	mov    %ecx,%esi
  40326f:	c7 06 a4 51 40 00    	movl   $0x4051a4,(%esi)
  403275:	74 0a                	je     0x403281
  403277:	6a 0c                	push   $0xc
  403279:	56                   	push   %esi
  40327a:	e8 d8 ff ff ff       	call   0x403257
  40327f:	59                   	pop    %ecx
  403280:	59                   	pop    %ecx
  403281:	8b c6                	mov    %esi,%eax
  403283:	5e                   	pop    %esi
  403284:	5d                   	pop    %ebp
  403285:	c2 04 00             	ret    $0x4
  403288:	56                   	push   %esi
  403289:	6a 01                	push   $0x1
  40328b:	e8 ac 09 00 00       	call   0x403c3c
  403290:	e8 6c 08 00 00       	call   0x403b01
  403295:	50                   	push   %eax
  403296:	e8 c5 09 00 00       	call   0x403c60
  40329b:	e8 97 06 00 00       	call   0x403937
  4032a0:	8b f0                	mov    %eax,%esi
  4032a2:	e8 e3 09 00 00       	call   0x403c8a
  4032a7:	6a 01                	push   $0x1
  4032a9:	89 30                	mov    %esi,(%eax)
  4032ab:	e8 05 fe ff ff       	call   0x4030b5
  4032b0:	83 c4 0c             	add    $0xc,%esp
  4032b3:	5e                   	pop    %esi
  4032b4:	84 c0                	test   %al,%al
  4032b6:	74 73                	je     0x40332b
  4032b8:	db e2                	fnclex
  4032ba:	e8 b9 08 00 00       	call   0x403b78
  4032bf:	68 a4 3b 40 00       	push   $0x403ba4
  4032c4:	e8 79 ff ff ff       	call   0x403242
  4032c9:	e8 39 05 00 00       	call   0x403807
  4032ce:	50                   	push   %eax
  4032cf:	e8 3e 09 00 00       	call   0x403c12
  4032d4:	59                   	pop    %ecx
  4032d5:	59                   	pop    %ecx
  4032d6:	85 c0                	test   %eax,%eax
  4032d8:	75 51                	jne    0x40332b
  4032da:	e8 28 08 00 00       	call   0x403b07
  4032df:	e8 7c 08 00 00       	call   0x403b60
  4032e4:	85 c0                	test   %eax,%eax
  4032e6:	74 0b                	je     0x4032f3
  4032e8:	68 37 39 40 00       	push   $0x403937
  4032ed:	e8 50 09 00 00       	call   0x403c42
  4032f2:	59                   	pop    %ecx
  4032f3:	e8 e1 01 00 00       	call   0x4034d9
  4032f8:	e8 dc 01 00 00       	call   0x4034d9
  4032fd:	e8 14 08 00 00       	call   0x403b16
  403302:	e8 30 06 00 00       	call   0x403937
  403307:	50                   	push   %eax
  403308:	e8 71 09 00 00       	call   0x403c7e
  40330d:	59                   	pop    %ecx
  40330e:	e8 00 08 00 00       	call   0x403b13
  403313:	84 c0                	test   %al,%al
  403315:	74 05                	je     0x40331c
  403317:	e8 fc 08 00 00       	call   0x403c18
  40331c:	e8 16 06 00 00       	call   0x403937
  403321:	e8 0c 06 00 00       	call   0x403932
  403326:	85 c0                	test   %eax,%eax
  403328:	75 01                	jne    0x40332b
  40332a:	c3                   	ret
  40332b:	6a 07                	push   $0x7
  40332d:	e8 e5 04 00 00       	call   0x403817
  403332:	cc                   	int3
  403333:	e8 0b 08 00 00       	call   0x403b43
  403338:	33 c0                	xor    %eax,%eax
  40333a:	c3                   	ret
  40333b:	e8 3c 06 00 00       	call   0x40397c
  403340:	e8 f2 05 00 00       	call   0x403937
  403345:	50                   	push   %eax
  403346:	e8 39 09 00 00       	call   0x403c84
  40334b:	59                   	pop    %ecx
  40334c:	c3                   	ret
  40334d:	6a 14                	push   $0x14
  40334f:	68 68 5b 40 00       	push   $0x405b68
  403354:	e8 97 06 00 00       	call   0x4039f0
  403359:	6a 01                	push   $0x1
  40335b:	e8 1c fd ff ff       	call   0x40307c
  403360:	59                   	pop    %ecx
  403361:	84 c0                	test   %al,%al
  403363:	0f 84 50 01 00 00    	je     0x4034b9
  403369:	32 db                	xor    %bl,%bl
  40336b:	88 5d e7             	mov    %bl,-0x19(%ebp)
  40336e:	83 65 fc 00          	andl   $0x0,-0x4(%ebp)
  403372:	e8 d3 fc ff ff       	call   0x40304a
  403377:	88 45 dc             	mov    %al,-0x24(%ebp)
  40337a:	a1 d0 70 40 00       	mov    0x4070d0,%eax
  40337f:	33 c9                	xor    %ecx,%ecx
  403381:	41                   	inc    %ecx
  403382:	3b c1                	cmp    %ecx,%eax
  403384:	0f 84 2f 01 00 00    	je     0x4034b9
  40338a:	85 c0                	test   %eax,%eax
  40338c:	75 49                	jne    0x4033d7
  40338e:	89 0d d0 70 40 00    	mov    %ecx,0x4070d0
  403394:	68 88 51 40 00       	push   $0x405188
  403399:	68 7c 51 40 00       	push   $0x40517c
  40339e:	e8 b1 08 00 00       	call   0x403c54
  4033a3:	59                   	pop    %ecx
  4033a4:	59                   	pop    %ecx
  4033a5:	85 c0                	test   %eax,%eax
  4033a7:	74 11                	je     0x4033ba
  4033a9:	c7 45 fc fe ff ff ff 	movl   $0xfffffffe,-0x4(%ebp)
  4033b0:	b8 ff 00 00 00       	mov    $0xff,%eax
  4033b5:	e9 ef 00 00 00       	jmp    0x4034a9
  4033ba:	68 78 51 40 00       	push   $0x405178
  4033bf:	68 58 51 40 00       	push   $0x405158
  4033c4:	e8 85 08 00 00       	call   0x403c4e
  4033c9:	59                   	pop    %ecx
  4033ca:	59                   	pop    %ecx
  4033cb:	c7 05 d0 70 40 00 02 	movl   $0x2,0x4070d0
  4033d2:	00 00 00 
  4033d5:	eb 05                	jmp    0x4033dc
  4033d7:	8a d9                	mov    %cl,%bl
  4033d9:	88 5d e7             	mov    %bl,-0x19(%ebp)
  4033dc:	ff 75 dc             	push   -0x24(%ebp)
  4033df:	e8 ec fd ff ff       	call   0x4031d0
  4033e4:	59                   	pop    %ecx
  4033e5:	e8 82 07 00 00       	call   0x403b6c
  4033ea:	8b f0                	mov    %eax,%esi
  4033ec:	33 ff                	xor    %edi,%edi
  4033ee:	39 3e                	cmp    %edi,(%esi)
  4033f0:	74 1b                	je     0x40340d
  4033f2:	56                   	push   %esi
  4033f3:	e8 44 fd ff ff       	call   0x40313c
  4033f8:	59                   	pop    %ecx
  4033f9:	84 c0                	test   %al,%al
  4033fb:	74 10                	je     0x40340d
  4033fd:	8b 36                	mov    (%esi),%esi
  4033ff:	57                   	push   %edi
  403400:	6a 02                	push   $0x2
  403402:	57                   	push   %edi
  403403:	8b ce                	mov    %esi,%ecx
  403405:	ff 15 50 51 40 00    	call   *0x405150
  40340b:	ff d6                	call   *%esi
  40340d:	e8 60 07 00 00       	call   0x403b72
  403412:	8b f0                	mov    %eax,%esi
  403414:	39 3e                	cmp    %edi,(%esi)
  403416:	74 13                	je     0x40342b
  403418:	56                   	push   %esi
  403419:	e8 1e fd ff ff       	call   0x40313c
  40341e:	59                   	pop    %ecx
  40341f:	84 c0                	test   %al,%al
  403421:	74 08                	je     0x40342b
  403423:	ff 36                	push   (%esi)
  403425:	e8 4e 08 00 00       	call   0x403c78
  40342a:	59                   	pop    %ecx
  40342b:	e8 18 08 00 00       	call   0x403c48
  403430:	8b f8                	mov    %eax,%edi
  403432:	e8 35 08 00 00       	call   0x403c6c
  403437:	8b 30                	mov    (%eax),%esi
  403439:	e8 28 08 00 00       	call   0x403c66
  40343e:	57                   	push   %edi
  40343f:	56                   	push   %esi
  403440:	ff 30                	push   (%eax)
  403442:	e8 29 ea ff ff       	call   0x401e70
  403447:	83 c4 0c             	add    $0xc,%esp
  40344a:	8b f0                	mov    %eax,%esi
  40344c:	e8 e9 04 00 00       	call   0x40393a
  403451:	84 c0                	test   %al,%al
  403453:	74 6b                	je     0x4034c0
  403455:	84 db                	test   %bl,%bl
  403457:	75 05                	jne    0x40345e
  403459:	e8 d2 07 00 00       	call   0x403c30
  40345e:	6a 00                	push   $0x0
  403460:	6a 01                	push   $0x1
  403462:	e8 86 fd ff ff       	call   0x4031ed
  403467:	59                   	pop    %ecx
  403468:	59                   	pop    %ecx
  403469:	c7 45 fc fe ff ff ff 	movl   $0xfffffffe,-0x4(%ebp)
  403470:	8b c6                	mov    %esi,%eax
  403472:	eb 35                	jmp    0x4034a9
  403474:	8b 4d ec             	mov    -0x14(%ebp),%ecx
  403477:	8b 01                	mov    (%ecx),%eax
  403479:	8b 00                	mov    (%eax),%eax
  40347b:	89 45 e0             	mov    %eax,-0x20(%ebp)
  40347e:	51                   	push   %ecx
  40347f:	50                   	push   %eax
  403480:	e8 b1 07 00 00       	call   0x403c36
  403485:	59                   	pop    %ecx
  403486:	59                   	pop    %ecx
  403487:	c3                   	ret
  403488:	8b 65 e8             	mov    -0x18(%ebp),%esp
  40348b:	e8 aa 04 00 00       	call   0x40393a
  403490:	84 c0                	test   %al,%al
  403492:	74 32                	je     0x4034c6
  403494:	80 7d e7 00          	cmpb   $0x0,-0x19(%ebp)
  403498:	75 05                	jne    0x40349f
  40349a:	e8 d3 07 00 00       	call   0x403c72
  40349f:	c7 45 fc fe ff ff ff 	movl   $0xfffffffe,-0x4(%ebp)
  4034a6:	8b 45 e0             	mov    -0x20(%ebp),%eax
  4034a9:	8b 4d f0             	mov    -0x10(%ebp),%ecx
  4034ac:	64 89 0d 00 00 00 00 	mov    %ecx,%fs:0x0
  4034b3:	59                   	pop    %ecx
  4034b4:	5f                   	pop    %edi
  4034b5:	5e                   	pop    %esi
  4034b6:	5b                   	pop    %ebx
  4034b7:	c9                   	leave
  4034b8:	c3                   	ret
  4034b9:	6a 07                	push   $0x7
  4034bb:	e8 57 03 00 00       	call   0x403817
  4034c0:	56                   	push   %esi
  4034c1:	e8 34 07 00 00       	call   0x403bfa
  4034c6:	ff 75 e0             	push   -0x20(%ebp)
  4034c9:	e8 8c 07 00 00       	call   0x403c5a
  4034ce:	cc                   	int3
  4034cf:	e8 e2 05 00 00       	call   0x403ab6
  4034d4:	e9 74 fe ff ff       	jmp    0x40334d
  4034d9:	c2 00 00             	ret    $0x0
  4034dc:	55                   	push   %ebp
  4034dd:	8b ec                	mov    %esp,%ebp
  4034df:	6a 00                	push   $0x0
  4034e1:	ff 15 04 50 40 00    	call   *0x405004
  4034e7:	ff 75 08             	push   0x8(%ebp)
  4034ea:	ff 15 30 50 40 00    	call   *0x405030
  4034f0:	68 09 04 00 c0       	push   $0xc0000409
  4034f5:	ff 15 08 50 40 00    	call   *0x405008
  4034fb:	50                   	push   %eax
  4034fc:	ff 15 0c 50 40 00    	call   *0x40500c
  403502:	5d                   	pop    %ebp
  403503:	c3                   	ret
  403504:	55                   	push   %ebp
  403505:	8b ec                	mov    %esp,%ebp
  403507:	81 ec 24 03 00 00    	sub    $0x324,%esp
  40350d:	6a 17                	push   $0x17
  40350f:	ff 15 10 50 40 00    	call   *0x405010
  403515:	85 c0                	test   %eax,%eax
  403517:	74 05                	je     0x40351e
  403519:	6a 02                	push   $0x2
  40351b:	59                   	pop    %ecx
  40351c:	cd 29                	int    $0x29
  40351e:	a3 f8 71 40 00       	mov    %eax,0x4071f8
  403523:	89 0d f4 71 40 00    	mov    %ecx,0x4071f4
  403529:	89 15 f0 71 40 00    	mov    %edx,0x4071f0
  40352f:	89 1d ec 71 40 00    	mov    %ebx,0x4071ec
  403535:	89 35 e8 71 40 00    	mov    %esi,0x4071e8
  40353b:	89 3d e4 71 40 00    	mov    %edi,0x4071e4
  403541:	66 8c 15 10 72 40 00 	data16 mov %ss,0x407210
  403548:	66 8c 0d 04 72 40 00 	data16 mov %cs,0x407204
  40354f:	66 8c 1d e0 71 40 00 	data16 mov %ds,0x4071e0
  403556:	66 8c 05 dc 71 40 00 	data16 mov %es,0x4071dc
  40355d:	66 8c 25 d8 71 40 00 	data16 mov %fs,0x4071d8
  403564:	66 8c 2d d4 71 40 00 	data16 mov %gs,0x4071d4
  40356b:	9c                   	pushf
  40356c:	8f 05 08 72 40 00    	pop    0x407208
  403572:	8b 45 00             	mov    0x0(%ebp),%eax
  403575:	a3 fc 71 40 00       	mov    %eax,0x4071fc
  40357a:	8b 45 04             	mov    0x4(%ebp),%eax
  40357d:	a3 00 72 40 00       	mov    %eax,0x407200
  403582:	8d 45 08             	lea    0x8(%ebp),%eax
  403585:	a3 0c 72 40 00       	mov    %eax,0x40720c
  40358a:	8b 85 dc fc ff ff    	mov    -0x324(%ebp),%eax
  403590:	c7 05 48 71 40 00 01 	movl   $0x10001,0x407148
  403597:	00 01 00 
  40359a:	a1 00 72 40 00       	mov    0x407200,%eax
  40359f:	a3 04 71 40 00       	mov    %eax,0x407104
  4035a4:	c7 05 f8 70 40 00 09 	movl   $0xc0000409,0x4070f8
  4035ab:	04 00 c0 
  4035ae:	c7 05 fc 70 40 00 01 	movl   $0x1,0x4070fc
  4035b5:	00 00 00 
  4035b8:	c7 05 08 71 40 00 01 	movl   $0x1,0x407108
  4035bf:	00 00 00 
  4035c2:	6a 04                	push   $0x4
  4035c4:	58                   	pop    %eax
  4035c5:	6b c0 00             	imul   $0x0,%eax,%eax
  4035c8:	c7 80 0c 71 40 00 02 	movl   $0x2,0x40710c(%eax)
  4035cf:	00 00 00 
  4035d2:	6a 04                	push   $0x4
  4035d4:	58                   	pop    %eax
  4035d5:	6b c0 00             	imul   $0x0,%eax,%eax
  4035d8:	8b 0d 04 70 40 00    	mov    0x407004,%ecx
  4035de:	89 4c 05 f8          	mov    %ecx,-0x8(%ebp,%eax,1)
  4035e2:	6a 04                	push   $0x4
  4035e4:	58                   	pop    %eax
  4035e5:	c1 e0 00             	shl    $0x0,%eax
  4035e8:	8b 0d 08 70 40 00    	mov    0x407008,%ecx
  4035ee:	89 4c 05 f8          	mov    %ecx,-0x8(%ebp,%eax,1)
  4035f2:	68 a8 51 40 00       	push   $0x4051a8
  4035f7:	e8 e0 fe ff ff       	call   0x4034dc
  4035fc:	c9                   	leave
  4035fd:	c3                   	ret
  4035fe:	83 61 04 00          	andl   $0x0,0x4(%ecx)
  403602:	8b c1                	mov    %ecx,%eax
  403604:	83 61 08 00          	andl   $0x0,0x8(%ecx)
  403608:	c7 41 04 c8 51 40 00 	movl   $0x4051c8,0x4(%ecx)
  40360f:	c7 01 c0 51 40 00    	movl   $0x4051c0,(%ecx)
  403615:	c3                   	ret
  403616:	55                   	push   %ebp
  403617:	8b ec                	mov    %esp,%ebp
  403619:	83 ec 0c             	sub    $0xc,%esp
  40361c:	8d 4d f4             	lea    -0xc(%ebp),%ecx
  40361f:	e8 da ff ff ff       	call   0x4035fe
  403624:	68 84 5b 40 00       	push   $0x405b84
  403629:	8d 45 f4             	lea    -0xc(%ebp),%eax
  40362c:	50                   	push   %eax
  40362d:	e8 aa 05 00 00       	call   0x403bdc
  403632:	cc                   	int3
  403633:	55                   	push   %ebp
  403634:	8b ec                	mov    %esp,%ebp
  403636:	83 25 14 74 40 00 00 	andl   $0x0,0x407414
  40363d:	83 ec 24             	sub    $0x24,%esp
  403640:	83 0d 0c 70 40 00 01 	orl    $0x1,0x40700c
  403647:	6a 0a                	push   $0xa
  403649:	ff 15 10 50 40 00    	call   *0x405010
  40364f:	85 c0                	test   %eax,%eax
  403651:	0f 84 ac 01 00 00    	je     0x403803
  403657:	83 65 f0 00          	andl   $0x0,-0x10(%ebp)
  40365b:	33 c0                	xor    %eax,%eax
  40365d:	53                   	push   %ebx
  40365e:	56                   	push   %esi
  40365f:	57                   	push   %edi
  403660:	33 c9                	xor    %ecx,%ecx
  403662:	8d 7d dc             	lea    -0x24(%ebp),%edi
  403665:	53                   	push   %ebx
  403666:	0f a2                	cpuid
  403668:	8b f3                	mov    %ebx,%esi
  40366a:	5b                   	pop    %ebx
  40366b:	90                   	nop
  40366c:	89 07                	mov    %eax,(%edi)
  40366e:	89 77 04             	mov    %esi,0x4(%edi)
  403671:	89 4f 08             	mov    %ecx,0x8(%edi)
  403674:	33 c9                	xor    %ecx,%ecx
  403676:	89 57 0c             	mov    %edx,0xc(%edi)
  403679:	8b 45 dc             	mov    -0x24(%ebp),%eax
  40367c:	8b 7d e0             	mov    -0x20(%ebp),%edi
  40367f:	89 45 f4             	mov    %eax,-0xc(%ebp)
  403682:	81 f7 47 65 6e 75    	xor    $0x756e6547,%edi
  403688:	8b 45 e8             	mov    -0x18(%ebp),%eax
  40368b:	35 69 6e 65 49       	xor    $0x49656e69,%eax
  403690:	89 45 fc             	mov    %eax,-0x4(%ebp)
  403693:	8b 45 e4             	mov    -0x1c(%ebp),%eax
  403696:	35 6e 74 65 6c       	xor    $0x6c65746e,%eax
  40369b:	89 45 f8             	mov    %eax,-0x8(%ebp)
  40369e:	33 c0                	xor    %eax,%eax
  4036a0:	40                   	inc    %eax
  4036a1:	53                   	push   %ebx
  4036a2:	0f a2                	cpuid
  4036a4:	8b f3                	mov    %ebx,%esi
  4036a6:	5b                   	pop    %ebx
  4036a7:	90                   	nop
  4036a8:	8d 5d dc             	lea    -0x24(%ebp),%ebx
  4036ab:	89 03                	mov    %eax,(%ebx)
  4036ad:	8b 45 fc             	mov    -0x4(%ebp),%eax
  4036b0:	0b 45 f8             	or     -0x8(%ebp),%eax
  4036b3:	0b c7                	or     %edi,%eax
  4036b5:	89 73 04             	mov    %esi,0x4(%ebx)
  4036b8:	89 4b 08             	mov    %ecx,0x8(%ebx)
  4036bb:	89 53 0c             	mov    %edx,0xc(%ebx)
  4036be:	75 43                	jne    0x403703
  4036c0:	8b 45 dc             	mov    -0x24(%ebp),%eax
  4036c3:	25 f0 3f ff 0f       	and    $0xfff3ff0,%eax
  4036c8:	3d c0 06 01 00       	cmp    $0x106c0,%eax
  4036cd:	74 23                	je     0x4036f2
  4036cf:	3d 60 06 02 00       	cmp    $0x20660,%eax
  4036d4:	74 1c                	je     0x4036f2
  4036d6:	3d 70 06 02 00       	cmp    $0x20670,%eax
  4036db:	74 15                	je     0x4036f2
  4036dd:	3d 50 06 03 00       	cmp    $0x30650,%eax
  4036e2:	74 0e                	je     0x4036f2
  4036e4:	3d 60 06 03 00       	cmp    $0x30660,%eax
  4036e9:	74 07                	je     0x4036f2
  4036eb:	3d 70 06 03 00       	cmp    $0x30670,%eax
  4036f0:	75 11                	jne    0x403703
  4036f2:	8b 3d 18 74 40 00    	mov    0x407418,%edi
  4036f8:	83 cf 01             	or     $0x1,%edi
  4036fb:	89 3d 18 74 40 00    	mov    %edi,0x407418
  403701:	eb 06                	jmp    0x403709
  403703:	8b 3d 18 74 40 00    	mov    0x407418,%edi
  403709:	8b 4d e4             	mov    -0x1c(%ebp),%ecx
  40370c:	6a 07                	push   $0x7
  40370e:	58                   	pop    %eax
  40370f:	89 4d fc             	mov    %ecx,-0x4(%ebp)
  403712:	39 45 f4             	cmp    %eax,-0xc(%ebp)
  403715:	7c 30                	jl     0x403747
  403717:	33 c9                	xor    %ecx,%ecx
  403719:	53                   	push   %ebx
  40371a:	0f a2                	cpuid
  40371c:	8b f3                	mov    %ebx,%esi
  40371e:	5b                   	pop    %ebx
  40371f:	90                   	nop
  403720:	8d 5d dc             	lea    -0x24(%ebp),%ebx
  403723:	89 03                	mov    %eax,(%ebx)
  403725:	89 73 04             	mov    %esi,0x4(%ebx)
  403728:	89 4b 08             	mov    %ecx,0x8(%ebx)
  40372b:	8b 4d fc             	mov    -0x4(%ebp),%ecx
  40372e:	89 53 0c             	mov    %edx,0xc(%ebx)
  403731:	8b 5d e0             	mov    -0x20(%ebp),%ebx
  403734:	f7 c3 00 02 00 00    	test   $0x200,%ebx
  40373a:	74 0e                	je     0x40374a
  40373c:	83 cf 02             	or     $0x2,%edi
  40373f:	89 3d 18 74 40 00    	mov    %edi,0x407418
  403745:	eb 03                	jmp    0x40374a
  403747:	8b 5d f0             	mov    -0x10(%ebp),%ebx
  40374a:	a1 0c 70 40 00       	mov    0x40700c,%eax
  40374f:	83 c8 02             	or     $0x2,%eax
  403752:	c7 05 14 74 40 00 01 	movl   $0x1,0x407414
  403759:	00 00 00 
  40375c:	a3 0c 70 40 00       	mov    %eax,0x40700c
  403761:	f7 c1 00 00 10 00    	test   $0x100000,%ecx
  403767:	0f 84 93 00 00 00    	je     0x403800
  40376d:	83 c8 04             	or     $0x4,%eax
  403770:	c7 05 14 74 40 00 02 	movl   $0x2,0x407414
  403777:	00 00 00 
  40377a:	a3 0c 70 40 00       	mov    %eax,0x40700c
  40377f:	f7 c1 00 00 00 08    	test   $0x8000000,%ecx
  403785:	74 79                	je     0x403800
  403787:	f7 c1 00 00 00 10    	test   $0x10000000,%ecx
  40378d:	74 71                	je     0x403800
  40378f:	33 c9                	xor    %ecx,%ecx
  403791:	0f 01 d0             	xgetbv
  403794:	89 45 ec             	mov    %eax,-0x14(%ebp)
  403797:	89 55 f0             	mov    %edx,-0x10(%ebp)
  40379a:	8b 45 ec             	mov    -0x14(%ebp),%eax
  40379d:	8b 4d f0             	mov    -0x10(%ebp),%ecx
  4037a0:	6a 06                	push   $0x6
  4037a2:	5e                   	pop    %esi
  4037a3:	23 c6                	and    %esi,%eax
  4037a5:	3b c6                	cmp    %esi,%eax
  4037a7:	75 57                	jne    0x403800
  4037a9:	a1 0c 70 40 00       	mov    0x40700c,%eax
  4037ae:	83 c8 08             	or     $0x8,%eax
  4037b1:	c7 05 14 74 40 00 03 	movl   $0x3,0x407414
  4037b8:	00 00 00 
  4037bb:	a3 0c 70 40 00       	mov    %eax,0x40700c
  4037c0:	f6 c3 20             	test   $0x20,%bl
  4037c3:	74 3b                	je     0x403800
  4037c5:	83 c8 20             	or     $0x20,%eax
  4037c8:	c7 05 14 74 40 00 05 	movl   $0x5,0x407414
  4037cf:	00 00 00 
  4037d2:	a3 0c 70 40 00       	mov    %eax,0x40700c
  4037d7:	b8 00 00 03 d0       	mov    $0xd0030000,%eax
  4037dc:	23 d8                	and    %eax,%ebx
  4037de:	3b d8                	cmp    %eax,%ebx
  4037e0:	75 1e                	jne    0x403800
  4037e2:	8b 45 ec             	mov    -0x14(%ebp),%eax
  4037e5:	ba e0 00 00 00       	mov    $0xe0,%edx
  4037ea:	8b 4d f0             	mov    -0x10(%ebp),%ecx
  4037ed:	23 c2                	and    %edx,%eax
  4037ef:	3b c2                	cmp    %edx,%eax
  4037f1:	75 0d                	jne    0x403800
  4037f3:	83 0d 0c 70 40 00 40 	orl    $0x40,0x40700c
  4037fa:	89 35 14 74 40 00    	mov    %esi,0x407414
  403800:	5f                   	pop    %edi
  403801:	5e                   	pop    %esi
  403802:	5b                   	pop    %ebx
  403803:	33 c0                	xor    %eax,%eax
  403805:	c9                   	leave
  403806:	c3                   	ret
  403807:	33 c0                	xor    %eax,%eax
  403809:	40                   	inc    %eax
  40380a:	c3                   	ret
  40380b:	33 c0                	xor    %eax,%eax
  40380d:	39 05 14 70 40 00    	cmp    %eax,0x407014
  403813:	0f 95 c0             	setne  %al
  403816:	c3                   	ret
  403817:	55                   	push   %ebp
  403818:	8b ec                	mov    %esp,%ebp
  40381a:	81 ec 24 03 00 00    	sub    $0x324,%esp
  403820:	53                   	push   %ebx
  403821:	6a 17                	push   $0x17
  403823:	ff 15 10 50 40 00    	call   *0x405010
  403829:	85 c0                	test   %eax,%eax
  40382b:	74 05                	je     0x403832
  40382d:	8b 4d 08             	mov    0x8(%ebp),%ecx
  403830:	cd 29                	int    $0x29
  403832:	6a 03                	push   $0x3
  403834:	e8 a5 01 00 00       	call   0x4039de
  403839:	c7 04 24 cc 02 00 00 	movl   $0x2cc,(%esp)
  403840:	8d 85 dc fc ff ff    	lea    -0x324(%ebp),%eax
  403846:	6a 00                	push   $0x0
  403848:	50                   	push   %eax
  403849:	e8 a0 03 00 00       	call   0x403bee
  40384e:	83 c4 0c             	add    $0xc,%esp
  403851:	89 85 8c fd ff ff    	mov    %eax,-0x274(%ebp)
  403857:	89 8d 88 fd ff ff    	mov    %ecx,-0x278(%ebp)
  40385d:	89 95 84 fd ff ff    	mov    %edx,-0x27c(%ebp)
  403863:	89 9d 80 fd ff ff    	mov    %ebx,-0x280(%ebp)
  403869:	89 b5 7c fd ff ff    	mov    %esi,-0x284(%ebp)
  40386f:	89 bd 78 fd ff ff    	mov    %edi,-0x288(%ebp)
  403875:	66 8c 95 a4 fd ff ff 	data16 mov %ss,-0x25c(%ebp)
  40387c:	66 8c 8d 98 fd ff ff 	data16 mov %cs,-0x268(%ebp)
  403883:	66 8c 9d 74 fd ff ff 	data16 mov %ds,-0x28c(%ebp)
  40388a:	66 8c 85 70 fd ff ff 	data16 mov %es,-0x290(%ebp)
  403891:	66 8c a5 6c fd ff ff 	data16 mov %fs,-0x294(%ebp)
  403898:	66 8c ad 68 fd ff ff 	data16 mov %gs,-0x298(%ebp)
  40389f:	9c                   	pushf
  4038a0:	8f 85 9c fd ff ff    	pop    -0x264(%ebp)
  4038a6:	8b 45 04             	mov    0x4(%ebp),%eax
  4038a9:	89 85 94 fd ff ff    	mov    %eax,-0x26c(%ebp)
  4038af:	8d 45 04             	lea    0x4(%ebp),%eax
  4038b2:	89 85 a0 fd ff ff    	mov    %eax,-0x260(%ebp)
  4038b8:	c7 85 dc fc ff ff 01 	movl   $0x10001,-0x324(%ebp)
  4038bf:	00 01 00 
  4038c2:	8b 40 fc             	mov    -0x4(%eax),%eax
  4038c5:	6a 50                	push   $0x50
  4038c7:	89 85 90 fd ff ff    	mov    %eax,-0x270(%ebp)
  4038cd:	8d 45 a8             	lea    -0x58(%ebp),%eax
  4038d0:	6a 00                	push   $0x0
  4038d2:	50                   	push   %eax
  4038d3:	e8 16 03 00 00       	call   0x403bee
  4038d8:	8b 45 04             	mov    0x4(%ebp),%eax
  4038db:	83 c4 0c             	add    $0xc,%esp
  4038de:	c7 45 a8 15 00 00 40 	movl   $0x40000015,-0x58(%ebp)
  4038e5:	c7 45 ac 01 00 00 00 	movl   $0x1,-0x54(%ebp)
  4038ec:	89 45 b4             	mov    %eax,-0x4c(%ebp)
  4038ef:	ff 15 14 50 40 00    	call   *0x405014
  4038f5:	6a 00                	push   $0x0
  4038f7:	8d 58 ff             	lea    -0x1(%eax),%ebx
  4038fa:	f7 db                	neg    %ebx
  4038fc:	8d 45 a8             	lea    -0x58(%ebp),%eax
  4038ff:	89 45 f8             	mov    %eax,-0x8(%ebp)
  403902:	8d 85 dc fc ff ff    	lea    -0x324(%ebp),%eax
  403908:	1a db                	sbb    %bl,%bl
  40390a:	89 45 fc             	mov    %eax,-0x4(%ebp)
  40390d:	fe c3                	inc    %bl
  40390f:	ff 15 04 50 40 00    	call   *0x405004
  403915:	8d 45 f8             	lea    -0x8(%ebp),%eax
  403918:	50                   	push   %eax
  403919:	ff 15 30 50 40 00    	call   *0x405030
  40391f:	85 c0                	test   %eax,%eax
  403921:	75 0c                	jne    0x40392f
  403923:	84 db                	test   %bl,%bl
  403925:	75 08                	jne    0x40392f
  403927:	6a 03                	push   $0x3
  403929:	e8 b0 00 00 00       	call   0x4039de
  40392e:	59                   	pop    %ecx
  40392f:	5b                   	pop    %ebx
  403930:	c9                   	leave
  403931:	c3                   	ret
  403932:	e9 00 00 00 00       	jmp    0x403937
  403937:	33 c0                	xor    %eax,%eax
  403939:	c3                   	ret
  40393a:	6a 00                	push   $0x0
  40393c:	ff 15 18 50 40 00    	call   *0x405018
  403942:	85 c0                	test   %eax,%eax
  403944:	74 33                	je     0x403979
  403946:	b9 4d 5a 00 00       	mov    $0x5a4d,%ecx
  40394b:	66 39 08             	cmp    %cx,(%eax)
  40394e:	75 29                	jne    0x403979
  403950:	8b 48 3c             	mov    0x3c(%eax),%ecx
  403953:	03 c8                	add    %eax,%ecx
  403955:	81 39 50 45 00 00    	cmpl   $0x4550,(%ecx)
  40395b:	75 1c                	jne    0x403979
  40395d:	b8 0b 01 00 00       	mov    $0x10b,%eax
  403962:	66 39 41 18          	cmp    %ax,0x18(%ecx)
  403966:	75 11                	jne    0x403979
  403968:	83 79 74 0e          	cmpl   $0xe,0x74(%ecx)
  40396c:	76 0b                	jbe    0x403979
  40396e:	83 b9 e8 00 00 00 00 	cmpl   $0x0,0xe8(%ecx)
  403975:	0f 95 c0             	setne  %al
  403978:	c3                   	ret
  403979:	32 c0                	xor    %al,%al
  40397b:	c3                   	ret
  40397c:	68 88 39 40 00       	push   $0x403988
  403981:	ff 15 04 50 40 00    	call   *0x405004
  403987:	c3                   	ret
  403988:	55                   	push   %ebp
  403989:	8b ec                	mov    %esp,%ebp
  40398b:	56                   	push   %esi
  40398c:	57                   	push   %edi
  40398d:	8b 7d 08             	mov    0x8(%ebp),%edi
  403990:	8b 37                	mov    (%edi),%esi
  403992:	81 3e 63 73 6d e0    	cmpl   $0xe06d7363,(%esi)
  403998:	75 25                	jne    0x4039bf
  40399a:	83 7e 10 03          	cmpl   $0x3,0x10(%esi)
  40399e:	75 1f                	jne    0x4039bf
  4039a0:	8b 46 14             	mov    0x14(%esi),%eax
  4039a3:	3d 20 05 93 19       	cmp    $0x19930520,%eax
  4039a8:	74 1d                	je     0x4039c7
  4039aa:	3d 21 05 93 19       	cmp    $0x19930521,%eax
  4039af:	74 16                	je     0x4039c7
  4039b1:	3d 22 05 93 19       	cmp    $0x19930522,%eax
  4039b6:	74 0f                	je     0x4039c7
  4039b8:	3d 00 40 99 01       	cmp    $0x1994000,%eax
  4039bd:	74 08                	je     0x4039c7
  4039bf:	5f                   	pop    %edi
  4039c0:	33 c0                	xor    %eax,%eax
  4039c2:	5e                   	pop    %esi
  4039c3:	5d                   	pop    %ebp
  4039c4:	c2 04 00             	ret    $0x4
  4039c7:	e8 16 02 00 00       	call   0x403be2
  4039cc:	89 30                	mov    %esi,(%eax)
  4039ce:	8b 77 04             	mov    0x4(%edi),%esi
  4039d1:	e8 12 02 00 00       	call   0x403be8
  4039d6:	89 30                	mov    %esi,(%eax)
  4039d8:	e8 23 02 00 00       	call   0x403c00
  4039dd:	cc                   	int3
  4039de:	83 25 1c 74 40 00 00 	andl   $0x0,0x40741c
  4039e5:	c3                   	ret
  4039e6:	cc                   	int3
  4039e7:	cc                   	int3
  4039e8:	cc                   	int3
  4039e9:	cc                   	int3
  4039ea:	cc                   	int3
  4039eb:	cc                   	int3
  4039ec:	cc                   	int3
  4039ed:	cc                   	int3
  4039ee:	cc                   	int3
  4039ef:	cc                   	int3
  4039f0:	68 35 3a 40 00       	push   $0x403a35
  4039f5:	64 ff 35 00 00 00 00 	push   %fs:0x0
  4039fc:	8b 44 24 10          	mov    0x10(%esp),%eax
  403a00:	89 6c 24 10          	mov    %ebp,0x10(%esp)
  403a04:	8d 6c 24 10          	lea    0x10(%esp),%ebp
  403a08:	2b e0                	sub    %eax,%esp
  403a0a:	53                   	push   %ebx
  403a0b:	56                   	push   %esi
  403a0c:	57                   	push   %edi
  403a0d:	a1 04 70 40 00       	mov    0x407004,%eax
  403a12:	31 45 fc             	xor    %eax,-0x4(%ebp)
  403a15:	33 c5                	xor    %ebp,%eax
  403a17:	50                   	push   %eax
  403a18:	89 65 e8             	mov    %esp,-0x18(%ebp)
  403a1b:	ff 75 f8             	push   -0x8(%ebp)
  403a1e:	8b 45 fc             	mov    -0x4(%ebp),%eax
  403a21:	c7 45 fc fe ff ff ff 	movl   $0xfffffffe,-0x4(%ebp)
  403a28:	89 45 f8             	mov    %eax,-0x8(%ebp)
  403a2b:	8d 45 f0             	lea    -0x10(%ebp),%eax
  403a2e:	64 a3 00 00 00 00    	mov    %eax,%fs:0x0
  403a34:	c3                   	ret
  403a35:	55                   	push   %ebp
  403a36:	8b ec                	mov    %esp,%ebp
  403a38:	56                   	push   %esi
  403a39:	8b 75 08             	mov    0x8(%ebp),%esi
  403a3c:	ff 36                	push   (%esi)
  403a3e:	e8 59 02 00 00       	call   0x403c9c
  403a43:	ff 75 14             	push   0x14(%ebp)
  403a46:	89 06                	mov    %eax,(%esi)
  403a48:	ff 75 10             	push   0x10(%ebp)
  403a4b:	ff 75 0c             	push   0xc(%ebp)
  403a4e:	56                   	push   %esi
  403a4f:	68 c8 2f 40 00       	push   $0x402fc8
  403a54:	68 04 70 40 00       	push   $0x407004
  403a59:	e8 96 01 00 00       	call   0x403bf4
  403a5e:	83 c4 1c             	add    $0x1c,%esp
  403a61:	5e                   	pop    %esi
  403a62:	5d                   	pop    %ebp
  403a63:	c3                   	ret
  403a64:	e9 27 02 00 00       	jmp    0x403c90
  403a69:	55                   	push   %ebp
  403a6a:	8b ec                	mov    %esp,%ebp
  403a6c:	83 ec 14             	sub    $0x14,%esp
  403a6f:	83 65 f4 00          	andl   $0x0,-0xc(%ebp)
  403a73:	8d 45 f4             	lea    -0xc(%ebp),%eax
  403a76:	83 65 f8 00          	andl   $0x0,-0x8(%ebp)
  403a7a:	50                   	push   %eax
  403a7b:	ff 15 28 50 40 00    	call   *0x405028
  403a81:	8b 45 f8             	mov    -0x8(%ebp),%eax
  403a84:	33 45 f4             	xor    -0xc(%ebp),%eax
  403a87:	89 45 fc             	mov    %eax,-0x4(%ebp)
  403a8a:	ff 15 24 50 40 00    	call   *0x405024
  403a90:	31 45 fc             	xor    %eax,-0x4(%ebp)
  403a93:	ff 15 20 50 40 00    	call   *0x405020
  403a99:	31 45 fc             	xor    %eax,-0x4(%ebp)
  403a9c:	8d 45 ec             	lea    -0x14(%ebp),%eax
  403a9f:	50                   	push   %eax
  403aa0:	ff 15 1c 50 40 00    	call   *0x40501c
  403aa6:	8b 45 f0             	mov    -0x10(%ebp),%eax
  403aa9:	8d 4d fc             	lea    -0x4(%ebp),%ecx
  403aac:	33 45 ec             	xor    -0x14(%ebp),%eax
  403aaf:	33 45 fc             	xor    -0x4(%ebp),%eax
  403ab2:	33 c1                	xor    %ecx,%eax
  403ab4:	c9                   	leave
  403ab5:	c3                   	ret
  403ab6:	8b 0d 04 70 40 00    	mov    0x407004,%ecx
  403abc:	56                   	push   %esi
  403abd:	57                   	push   %edi
  403abe:	bf 4e e6 40 bb       	mov    $0xbb40e64e,%edi
  403ac3:	be 00 00 ff ff       	mov    $0xffff0000,%esi
  403ac8:	3b cf                	cmp    %edi,%ecx
  403aca:	74 04                	je     0x403ad0
  403acc:	85 ce                	test   %ecx,%esi
  403ace:	75 26                	jne    0x403af6
  403ad0:	e8 94 ff ff ff       	call   0x403a69
  403ad5:	8b c8                	mov    %eax,%ecx
  403ad7:	3b cf                	cmp    %edi,%ecx
  403ad9:	75 07                	jne    0x403ae2
  403adb:	b9 4f e6 40 bb       	mov    $0xbb40e64f,%ecx
  403ae0:	eb 0e                	jmp    0x403af0
  403ae2:	85 ce                	test   %ecx,%esi
  403ae4:	75 0a                	jne    0x403af0
  403ae6:	0d 11 47 00 00       	or     $0x4711,%eax
  403aeb:	c1 e0 10             	shl    $0x10,%eax
  403aee:	0b c8                	or     %eax,%ecx
  403af0:	89 0d 04 70 40 00    	mov    %ecx,0x407004
  403af6:	f7 d1                	not    %ecx
  403af8:	5f                   	pop    %edi
  403af9:	89 0d 08 70 40 00    	mov    %ecx,0x407008
  403aff:	5e                   	pop    %esi
  403b00:	c3                   	ret
  403b01:	b8 00 40 00 00       	mov    $0x4000,%eax
  403b06:	c3                   	ret
  403b07:	68 20 74 40 00       	push   $0x407420
  403b0c:	ff 15 2c 50 40 00    	call   *0x40502c
  403b12:	c3                   	ret
  403b13:	b0 01                	mov    $0x1,%al
  403b15:	c3                   	ret
  403b16:	68 00 00 03 00       	push   $0x30000
  403b1b:	68 00 00 01 00       	push   $0x10000
  403b20:	6a 00                	push   $0x0
  403b22:	e8 6f 01 00 00       	call   0x403c96
  403b27:	83 c4 0c             	add    $0xc,%esp
  403b2a:	85 c0                	test   %eax,%eax
  403b2c:	75 01                	jne    0x403b2f
  403b2e:	c3                   	ret
  403b2f:	6a 07                	push   $0x7
  403b31:	e8 e1 fc ff ff       	call   0x403817
  403b36:	cc                   	int3
  403b37:	b8 28 74 40 00       	mov    $0x407428,%eax
  403b3c:	c3                   	ret
  403b3d:	b8 30 74 40 00       	mov    $0x407430,%eax
  403b42:	c3                   	ret
  403b43:	e8 ef ff ff ff       	call   0x403b37
  403b48:	8b 48 04             	mov    0x4(%eax),%ecx
  403b4b:	83 08 24             	orl    $0x24,(%eax)
  403b4e:	89 48 04             	mov    %ecx,0x4(%eax)
  403b51:	e8 e7 ff ff ff       	call   0x403b3d
  403b56:	8b 48 04             	mov    0x4(%eax),%ecx
  403b59:	83 08 02             	orl    $0x2,(%eax)
  403b5c:	89 48 04             	mov    %ecx,0x4(%eax)
  403b5f:	c3                   	ret
  403b60:	33 c0                	xor    %eax,%eax
  403b62:	39 05 10 70 40 00    	cmp    %eax,0x407010
  403b68:	0f 94 c0             	sete   %al
  403b6b:	c3                   	ret
  403b6c:	b8 a8 74 40 00       	mov    $0x4074a8,%eax
  403b71:	c3                   	ret
  403b72:	b8 a4 74 40 00       	mov    $0x4074a4,%eax
  403b77:	c3                   	ret
  403b78:	53                   	push   %ebx
  403b79:	56                   	push   %esi
  403b7a:	be 54 59 40 00       	mov    $0x405954,%esi
  403b7f:	bb 54 59 40 00       	mov    $0x405954,%ebx
  403b84:	3b f3                	cmp    %ebx,%esi
  403b86:	73 19                	jae    0x403ba1
  403b88:	57                   	push   %edi
  403b89:	8b 3e                	mov    (%esi),%edi
  403b8b:	85 ff                	test   %edi,%edi
  403b8d:	74 0a                	je     0x403b99
  403b8f:	8b cf                	mov    %edi,%ecx
  403b91:	ff 15 50 51 40 00    	call   *0x405150
  403b97:	ff d7                	call   *%edi
  403b99:	83 c6 04             	add    $0x4,%esi
  403b9c:	3b f3                	cmp    %ebx,%esi
  403b9e:	72 e9                	jb     0x403b89
  403ba0:	5f                   	pop    %edi
  403ba1:	5e                   	pop    %esi
  403ba2:	5b                   	pop    %ebx
  403ba3:	c3                   	ret
  403ba4:	53                   	push   %ebx
  403ba5:	56                   	push   %esi
  403ba6:	be 5c 59 40 00       	mov    $0x40595c,%esi
  403bab:	bb 5c 59 40 00       	mov    $0x40595c,%ebx
  403bb0:	3b f3                	cmp    %ebx,%esi
  403bb2:	73 19                	jae    0x403bcd
  403bb4:	57                   	push   %edi
  403bb5:	8b 3e                	mov    (%esi),%edi
  403bb7:	85 ff                	test   %edi,%edi
  403bb9:	74 0a                	je     0x403bc5
  403bbb:	8b cf                	mov    %edi,%ecx
  403bbd:	ff 15 50 51 40 00    	call   *0x405150
  403bc3:	ff d7                	call   *%edi
  403bc5:	83 c6 04             	add    $0x4,%esi
  403bc8:	3b f3                	cmp    %ebx,%esi
  403bca:	72 e9                	jb     0x403bb5
  403bcc:	5f                   	pop    %edi
  403bcd:	5e                   	pop    %esi
  403bce:	5b                   	pop    %ebx
  403bcf:	c3                   	ret
  403bd0:	ff 25 b8 50 40 00    	jmp    *0x4050b8
  403bd6:	ff 25 b0 50 40 00    	jmp    *0x4050b0
  403bdc:	ff 25 ac 50 40 00    	jmp    *0x4050ac
  403be2:	ff 25 a8 50 40 00    	jmp    *0x4050a8
  403be8:	ff 25 a4 50 40 00    	jmp    *0x4050a4
  403bee:	ff 25 a0 50 40 00    	jmp    *0x4050a0
  403bf4:	ff 25 9c 50 40 00    	jmp    *0x40509c
  403bfa:	ff 25 00 51 40 00    	jmp    *0x405100
  403c00:	ff 25 3c 51 40 00    	jmp    *0x40513c
  403c06:	ff 25 c8 50 40 00    	jmp    *0x4050c8
  403c0c:	ff 25 d0 50 40 00    	jmp    *0x4050d0
  403c12:	ff 25 30 51 40 00    	jmp    *0x405130
  403c18:	ff 25 2c 51 40 00    	jmp    *0x40512c
  403c1e:	ff 25 28 51 40 00    	jmp    *0x405128
  403c24:	ff 25 24 51 40 00    	jmp    *0x405124
  403c2a:	ff 25 20 51 40 00    	jmp    *0x405120
  403c30:	ff 25 10 51 40 00    	jmp    *0x405110
  403c36:	ff 25 34 51 40 00    	jmp    *0x405134
  403c3c:	ff 25 04 51 40 00    	jmp    *0x405104
  403c42:	ff 25 e4 50 40 00    	jmp    *0x4050e4
  403c48:	ff 25 1c 51 40 00    	jmp    *0x40511c
  403c4e:	ff 25 38 51 40 00    	jmp    *0x405138
  403c54:	ff 25 14 51 40 00    	jmp    *0x405114
  403c5a:	ff 25 f8 50 40 00    	jmp    *0x4050f8
  403c60:	ff 25 44 51 40 00    	jmp    *0x405144
  403c66:	ff 25 fc 50 40 00    	jmp    *0x4050fc
  403c6c:	ff 25 ec 50 40 00    	jmp    *0x4050ec
  403c72:	ff 25 f0 50 40 00    	jmp    *0x4050f0
  403c78:	ff 25 f4 50 40 00    	jmp    *0x4050f4
  403c7e:	ff 25 dc 50 40 00    	jmp    *0x4050dc
  403c84:	ff 25 cc 50 40 00    	jmp    *0x4050cc
  403c8a:	ff 25 48 51 40 00    	jmp    *0x405148
  403c90:	ff 25 d4 50 40 00    	jmp    *0x4050d4
  403c96:	ff 25 08 51 40 00    	jmp    *0x405108
  403c9c:	55                   	push   %ebp
  403c9d:	8b ec                	mov    %esp,%ebp
  403c9f:	51                   	push   %ecx
  403ca0:	83 3d 14 74 40 00 01 	cmpl   $0x1,0x407414
  403ca7:	7c 66                	jl     0x403d0f
  403ca9:	81 7d 08 b4 02 00 c0 	cmpl   $0xc00002b4,0x8(%ebp)
  403cb0:	74 09                	je     0x403cbb
  403cb2:	81 7d 08 b5 02 00 c0 	cmpl   $0xc00002b5,0x8(%ebp)
  403cb9:	75 54                	jne    0x403d0f
  403cbb:	0f ae 5d fc          	stmxcsr -0x4(%ebp)
  403cbf:	8b 45 fc             	mov    -0x4(%ebp),%eax
  403cc2:	83 f0 3f             	xor    $0x3f,%eax
  403cc5:	a8 81                	test   $0x81,%al
  403cc7:	74 3f                	je     0x403d08
  403cc9:	a9 04 02 00 00       	test   $0x204,%eax
  403cce:	75 07                	jne    0x403cd7
  403cd0:	b8 8e 00 00 c0       	mov    $0xc000008e,%eax
  403cd5:	c9                   	leave
  403cd6:	c3                   	ret
  403cd7:	a9 02 01 00 00       	test   $0x102,%eax
  403cdc:	74 2a                	je     0x403d08
  403cde:	a9 08 04 00 00       	test   $0x408,%eax
  403ce3:	75 07                	jne    0x403cec
  403ce5:	b8 91 00 00 c0       	mov    $0xc0000091,%eax
  403cea:	c9                   	leave
  403ceb:	c3                   	ret
  403cec:	a9 10 08 00 00       	test   $0x810,%eax
  403cf1:	75 07                	jne    0x403cfa
  403cf3:	b8 93 00 00 c0       	mov    $0xc0000093,%eax
  403cf8:	c9                   	leave
  403cf9:	c3                   	ret
  403cfa:	a9 20 10 00 00       	test   $0x1020,%eax
  403cff:	75 0e                	jne    0x403d0f
  403d01:	b8 8f 00 00 c0       	mov    $0xc000008f,%eax
  403d06:	c9                   	leave
  403d07:	c3                   	ret
  403d08:	b8 90 00 00 c0       	mov    $0xc0000090,%eax
  403d0d:	c9                   	leave
  403d0e:	c3                   	ret
  403d0f:	8b 45 08             	mov    0x8(%ebp),%eax
  403d12:	c9                   	leave
  403d13:	c3                   	ret
  403d14:	ff 25 bc 50 40 00    	jmp    *0x4050bc
  403d1a:	ff 25 98 50 40 00    	jmp    *0x405098
  403d20:	8b 5d f0             	mov    -0x10(%ebp),%ebx
  403d23:	8d 4b 08             	lea    0x8(%ebx),%ecx
  403d26:	e9 95 e7 ff ff       	jmp    0x4024c0
  403d2b:	8d 4d 88             	lea    -0x78(%ebp),%ecx
  403d2e:	e9 8d e7 ff ff       	jmp    0x4024c0
  403d33:	8d 8d 68 ff ff ff    	lea    -0x98(%ebp),%ecx
  403d39:	e9 82 e7 ff ff       	jmp    0x4024c0
  403d3e:	cc                   	int3
  403d3f:	cc                   	int3
  403d40:	cc                   	int3
  403d41:	cc                   	int3
  403d42:	cc                   	int3
  403d43:	90                   	nop
  403d44:	90                   	nop
  403d45:	8b 54 24 08          	mov    0x8(%esp),%edx
  403d49:	8d 42 0c             	lea    0xc(%edx),%eax
  403d4c:	8b 8a 48 ff ff ff    	mov    -0xb8(%edx),%ecx
  403d52:	33 c8                	xor    %eax,%ecx
  403d54:	e8 6f f2 ff ff       	call   0x402fc8
  403d59:	8b 4a e8             	mov    -0x18(%edx),%ecx
  403d5c:	33 c8                	xor    %eax,%ecx
  403d5e:	e8 65 f2 ff ff       	call   0x402fc8
  403d63:	b8 60 59 40 00       	mov    $0x405960,%eax
  403d68:	e9 63 fe ff ff       	jmp    0x403bd0
  403d6d:	cc                   	int3
  403d6e:	cc                   	int3
  403d6f:	cc                   	int3
  403d70:	8d 8d 3c ff ff ff    	lea    -0xc4(%ebp),%ecx
  403d76:	e9 55 f1 ff ff       	jmp    0x402ed0
  403d7b:	8d 8d 30 ff ff ff    	lea    -0xd0(%ebp),%ecx
  403d81:	e9 2a d5 ff ff       	jmp    0x4012b0
  403d86:	cc                   	int3
  403d87:	cc                   	int3
  403d88:	cc                   	int3
  403d89:	cc                   	int3
  403d8a:	cc                   	int3
  403d8b:	90                   	nop
  403d8c:	90                   	nop
  403d8d:	8b 54 24 08          	mov    0x8(%esp),%edx
  403d91:	8d 42 0c             	lea    0xc(%edx),%eax
  403d94:	8b 8a a8 fe ff ff    	mov    -0x158(%edx),%ecx
  403d9a:	33 c8                	xor    %eax,%ecx
  403d9c:	e8 27 f2 ff ff       	call   0x402fc8
  403da1:	8b 4a e8             	mov    -0x18(%edx),%ecx
  403da4:	33 c8                	xor    %eax,%ecx
  403da6:	e8 1d f2 ff ff       	call   0x402fc8
  403dab:	b8 9c 59 40 00       	mov    $0x40599c,%eax
  403db0:	e9 1b fe ff ff       	jmp    0x403bd0
  403db5:	cc                   	int3
  403db6:	cc                   	int3
  403db7:	cc                   	int3
  403db8:	cc                   	int3
  403db9:	cc                   	int3
  403dba:	cc                   	int3
  403dbb:	cc                   	int3
  403dbc:	cc                   	int3
  403dbd:	cc                   	int3
  403dbe:	cc                   	int3
  403dbf:	cc                   	int3
  403dc0:	8d 4d e8             	lea    -0x18(%ebp),%ecx
  403dc3:	ff 25 6c 50 40 00    	jmp    *0x40506c
  403dc9:	8d 4d ec             	lea    -0x14(%ebp),%ecx
  403dcc:	e9 ef f0 ff ff       	jmp    0x402ec0
  403dd1:	cc                   	int3
  403dd2:	cc                   	int3
  403dd3:	cc                   	int3
  403dd4:	cc                   	int3
  403dd5:	cc                   	int3
  403dd6:	90                   	nop
  403dd7:	90                   	nop
  403dd8:	8b 54 24 08          	mov    0x8(%esp),%edx
  403ddc:	8d 42 0c             	lea    0xc(%edx),%eax
  403ddf:	8b 4a e0             	mov    -0x20(%edx),%ecx
  403de2:	33 c8                	xor    %eax,%ecx
  403de4:	e8 df f1 ff ff       	call   0x402fc8
  403de9:	8b 4a fc             	mov    -0x4(%edx),%ecx
  403dec:	33 c8                	xor    %eax,%ecx
  403dee:	e8 d5 f1 ff ff       	call   0x402fc8
  403df3:	b8 d0 59 40 00       	mov    $0x4059d0,%eax
  403df8:	e9 d3 fd ff ff       	jmp    0x403bd0
  403dfd:	cc                   	int3
  403dfe:	cc                   	int3
  403dff:	cc                   	int3
  403e00:	8d 4d d0             	lea    -0x30(%ebp),%ecx
  403e03:	e9 f8 ef ff ff       	jmp    0x402e00
  403e08:	8d 4d d0             	lea    -0x30(%ebp),%ecx
  403e0b:	e9 40 f0 ff ff       	jmp    0x402e50
  403e10:	cc                   	int3
  403e11:	cc                   	int3
  403e12:	cc                   	int3
  403e13:	cc                   	int3
  403e14:	cc                   	int3
  403e15:	90                   	nop
  403e16:	90                   	nop
  403e17:	8b 54 24 08          	mov    0x8(%esp),%edx
  403e1b:	8d 42 0c             	lea    0xc(%edx),%eax
  403e1e:	8b 4a cc             	mov    -0x34(%edx),%ecx
  403e21:	33 c8                	xor    %eax,%ecx
  403e23:	e8 a0 f1 ff ff       	call   0x402fc8
  403e28:	b8 04 5a 40 00       	mov    $0x405a04,%eax
  403e2d:	e9 9e fd ff ff       	jmp    0x403bd0
  403e32:	cc                   	int3
  403e33:	cc                   	int3
  403e34:	cc                   	int3
  403e35:	cc                   	int3
  403e36:	cc                   	int3
  403e37:	cc                   	int3
  403e38:	cc                   	int3
  403e39:	cc                   	int3
  403e3a:	cc                   	int3
  403e3b:	cc                   	int3
  403e3c:	cc                   	int3
  403e3d:	cc                   	int3
  403e3e:	cc                   	int3
  403e3f:	cc                   	int3
  403e40:	8d 4d d0             	lea    -0x30(%ebp),%ecx
  403e43:	e9 b8 ef ff ff       	jmp    0x402e00
  403e48:	8d 4d d0             	lea    -0x30(%ebp),%ecx
  403e4b:	e9 50 ef ff ff       	jmp    0x402da0
  403e50:	8d 4d c8             	lea    -0x38(%ebp),%ecx
  403e53:	e9 38 d4 ff ff       	jmp    0x401290
  403e58:	cc                   	int3
  403e59:	cc                   	int3
  403e5a:	cc                   	int3
  403e5b:	cc                   	int3
  403e5c:	cc                   	int3
  403e5d:	90                   	nop
  403e5e:	90                   	nop
  403e5f:	8b 54 24 08          	mov    0x8(%esp),%edx
  403e63:	8d 42 0c             	lea    0xc(%edx),%eax
  403e66:	8b 4a c4             	mov    -0x3c(%edx),%ecx
  403e69:	33 c8                	xor    %eax,%ecx
  403e6b:	e8 58 f1 ff ff       	call   0x402fc8
  403e70:	b8 7c 5a 40 00       	mov    $0x405a7c,%eax
  403e75:	e9 56 fd ff ff       	jmp    0x403bd0
  403e7a:	cc                   	int3
  403e7b:	cc                   	int3
  403e7c:	cc                   	int3
  403e7d:	cc                   	int3
  403e7e:	cc                   	int3
  403e7f:	cc                   	int3
  403e80:	90                   	nop
  403e81:	90                   	nop
  403e82:	8b 54 24 08          	mov    0x8(%esp),%edx
  403e86:	8d 42 0c             	lea    0xc(%edx),%eax
  403e89:	8b 4a fc             	mov    -0x4(%edx),%ecx
  403e8c:	33 c8                	xor    %eax,%ecx
  403e8e:	e8 35 f1 ff ff       	call   0x402fc8
  403e93:	b8 f4 5a 40 00       	mov    $0x405af4,%eax
  403e98:	e9 33 fd ff ff       	jmp    0x403bd0
  403e9d:	cc                   	int3
  403e9e:	cc                   	int3
  403e9f:	cc                   	int3
  403ea0:	90                   	nop
  403ea1:	90                   	nop
  403ea2:	8b 54 24 08          	mov    0x8(%esp),%edx
  403ea6:	8d 42 0c             	lea    0xc(%edx),%eax
  403ea9:	8b 4a fc             	mov    -0x4(%edx),%ecx
  403eac:	33 c8                	xor    %eax,%ecx
  403eae:	e8 15 f1 ff ff       	call   0x402fc8
  403eb3:	b8 20 5b 40 00       	mov    $0x405b20,%eax
  403eb8:	e9 13 fd ff ff       	jmp    0x403bd0
  403ebd:	cc                   	int3
  403ebe:	cc                   	int3
  403ebf:	cc                   	int3
  403ec0:	90                   	nop
  403ec1:	90                   	nop
  403ec2:	8b 54 24 08          	mov    0x8(%esp),%edx
  403ec6:	8d 42 0c             	lea    0xc(%edx),%eax
  403ec9:	8b 4a f8             	mov    -0x8(%edx),%ecx
  403ecc:	33 c8                	xor    %eax,%ecx
  403ece:	e8 f5 f0 ff ff       	call   0x402fc8
  403ed3:	b8 f4 5a 40 00       	mov    $0x405af4,%eax
  403ed8:	e9 f3 fc ff ff       	jmp    0x403bd0
  403edd:	cc                   	int3
  403ede:	cc                   	int3
  403edf:	cc                   	int3
  403ee0:	90                   	nop
  403ee1:	90                   	nop
  403ee2:	8b 54 24 08          	mov    0x8(%esp),%edx
  403ee6:	8d 42 0c             	lea    0xc(%edx),%eax
  403ee9:	8b 4a f8             	mov    -0x8(%edx),%ecx
  403eec:	33 c8                	xor    %eax,%ecx
  403eee:	e8 d5 f0 ff ff       	call   0x402fc8
  403ef3:	b8 20 5b 40 00       	mov    $0x405b20,%eax
  403ef8:	e9 d3 fc ff ff       	jmp    0x403bd0
  403efd:	cc                   	int3
  403efe:	cc                   	int3
  403eff:	cc                   	int3
  403f00:	8b 0d 2c 70 40 00    	mov    0x40702c,%ecx
  403f06:	83 f9 10             	cmp    $0x10,%ecx
  403f09:	72 2a                	jb     0x403f35
  403f0b:	a1 18 70 40 00       	mov    0x407018,%eax
  403f10:	41                   	inc    %ecx
  403f11:	81 f9 00 10 00 00    	cmp    $0x1000,%ecx
  403f17:	72 12                	jb     0x403f2b
  403f19:	8b 50 fc             	mov    -0x4(%eax),%edx
  403f1c:	83 c1 23             	add    $0x23,%ecx
  403f1f:	2b c2                	sub    %edx,%eax
  403f21:	83 c0 fc             	add    $0xfffffffc,%eax
  403f24:	83 f8 1f             	cmp    $0x1f,%eax
  403f27:	77 28                	ja     0x403f51
  403f29:	8b c2                	mov    %edx,%eax
  403f2b:	51                   	push   %ecx
  403f2c:	50                   	push   %eax
  403f2d:	e8 25 f3 ff ff       	call   0x403257
  403f32:	83 c4 08             	add    $0x8,%esp
  403f35:	c7 05 28 70 40 00 00 	movl   $0x0,0x407028
  403f3c:	00 00 00 
  403f3f:	c7 05 2c 70 40 00 0f 	movl   $0xf,0x40702c
  403f46:	00 00 00 
  403f49:	c6 05 18 70 40 00 00 	movb   $0x0,0x407018
  403f50:	c3                   	ret
  403f51:	ff 25 18 51 40 00    	jmp    *0x405118
  403f57:	cc                   	int3
  403f58:	cc                   	int3
  403f59:	cc                   	int3
  403f5a:	cc                   	int3
  403f5b:	cc                   	int3
  403f5c:	cc                   	int3
  403f5d:	cc                   	int3
  403f5e:	cc                   	int3
  403f5f:	cc                   	int3
  403f60:	8b 0d 84 74 40 00    	mov    0x407484,%ecx
  403f66:	83 f9 10             	cmp    $0x10,%ecx
  403f69:	72 2a                	jb     0x403f95
  403f6b:	a1 70 74 40 00       	mov    0x407470,%eax
  403f70:	41                   	inc    %ecx
  403f71:	81 f9 00 10 00 00    	cmp    $0x1000,%ecx
  403f77:	72 12                	jb     0x403f8b
  403f79:	8b 50 fc             	mov    -0x4(%eax),%edx
  403f7c:	83 c1 23             	add    $0x23,%ecx
  403f7f:	2b c2                	sub    %edx,%eax
  403f81:	83 c0 fc             	add    $0xfffffffc,%eax
  403f84:	83 f8 1f             	cmp    $0x1f,%eax
  403f87:	77 28                	ja     0x403fb1
  403f89:	8b c2                	mov    %edx,%eax
  403f8b:	51                   	push   %ecx
  403f8c:	50                   	push   %eax
  403f8d:	e8 c5 f2 ff ff       	call   0x403257
  403f92:	83 c4 08             	add    $0x8,%esp
  403f95:	c7 05 80 74 40 00 00 	movl   $0x0,0x407480
  403f9c:	00 00 00 
  403f9f:	c7 05 84 74 40 00 0f 	movl   $0xf,0x407484
  403fa6:	00 00 00 
  403fa9:	c6 05 70 74 40 00 00 	movb   $0x0,0x407470
  403fb0:	c3                   	ret
  403fb1:	ff 25 18 51 40 00    	jmp    *0x405118
  403fb7:	cc                   	int3
  403fb8:	cc                   	int3
  403fb9:	cc                   	int3
  403fba:	cc                   	int3
  403fbb:	cc                   	int3
  403fbc:	cc                   	int3
  403fbd:	cc                   	int3
  403fbe:	cc                   	int3
  403fbf:	cc                   	int3
  403fc0:	8b 0d 6c 74 40 00    	mov    0x40746c,%ecx
  403fc6:	83 f9 10             	cmp    $0x10,%ecx
  403fc9:	72 2a                	jb     0x403ff5
  403fcb:	a1 58 74 40 00       	mov    0x407458,%eax
  403fd0:	41                   	inc    %ecx
  403fd1:	81 f9 00 10 00 00    	cmp    $0x1000,%ecx
  403fd7:	72 12                	jb     0x403feb
  403fd9:	8b 50 fc             	mov    -0x4(%eax),%edx
  403fdc:	83 c1 23             	add    $0x23,%ecx
  403fdf:	2b c2                	sub    %edx,%eax
  403fe1:	83 c0 fc             	add    $0xfffffffc,%eax
  403fe4:	83 f8 1f             	cmp    $0x1f,%eax
  403fe7:	77 28                	ja     0x404011
  403fe9:	8b c2                	mov    %edx,%eax
  403feb:	51                   	push   %ecx
  403fec:	50                   	push   %eax
  403fed:	e8 65 f2 ff ff       	call   0x403257
  403ff2:	83 c4 08             	add    $0x8,%esp
  403ff5:	c7 05 68 74 40 00 00 	movl   $0x0,0x407468
  403ffc:	00 00 00 
  403fff:	c7 05 6c 74 40 00 0f 	movl   $0xf,0x40746c
  404006:	00 00 00 
  404009:	c6 05 58 74 40 00 00 	movb   $0x0,0x407458
  404010:	c3                   	ret
  404011:	ff 25 18 51 40 00    	jmp    *0x405118
  404017:	cc                   	int3
  404018:	cc                   	int3
  404019:	cc                   	int3
  40401a:	cc                   	int3
  40401b:	cc                   	int3
  40401c:	cc                   	int3
  40401d:	cc                   	int3
  40401e:	cc                   	int3
  40401f:	cc                   	int3
  404020:	8b 0d 54 74 40 00    	mov    0x407454,%ecx
  404026:	83 f9 10             	cmp    $0x10,%ecx
  404029:	72 2a                	jb     0x404055
  40402b:	a1 40 74 40 00       	mov    0x407440,%eax
  404030:	41                   	inc    %ecx
  404031:	81 f9 00 10 00 00    	cmp    $0x1000,%ecx
  404037:	72 12                	jb     0x40404b
  404039:	8b 50 fc             	mov    -0x4(%eax),%edx
  40403c:	83 c1 23             	add    $0x23,%ecx
  40403f:	2b c2                	sub    %edx,%eax
  404041:	83 c0 fc             	add    $0xfffffffc,%eax
  404044:	83 f8 1f             	cmp    $0x1f,%eax
  404047:	77 28                	ja     0x404071
  404049:	8b c2                	mov    %edx,%eax
  40404b:	51                   	push   %ecx
  40404c:	50                   	push   %eax
  40404d:	e8 05 f2 ff ff       	call   0x403257
  404052:	83 c4 08             	add    $0x8,%esp
  404055:	c7 05 50 74 40 00 00 	movl   $0x0,0x407450
  40405c:	00 00 00 
  40405f:	c7 05 54 74 40 00 0f 	movl   $0xf,0x407454
  404066:	00 00 00 
  404069:	c6 05 40 74 40 00 00 	movb   $0x0,0x407440
  404070:	c3                   	ret
  404071:	ff 25 18 51 40 00    	jmp    *0x405118
  404077:	cc                   	int3
  404078:	cc                   	int3
  404079:	cc                   	int3
  40407a:	cc                   	int3
  40407b:	cc                   	int3
  40407c:	cc                   	int3
  40407d:	cc                   	int3
  40407e:	cc                   	int3
  40407f:	cc                   	int3
  404080:	8b 0d 9c 74 40 00    	mov    0x40749c,%ecx
  404086:	83 f9 10             	cmp    $0x10,%ecx
  404089:	72 2a                	jb     0x4040b5
  40408b:	a1 88 74 40 00       	mov    0x407488,%eax
  404090:	41                   	inc    %ecx
  404091:	81 f9 00 10 00 00    	cmp    $0x1000,%ecx
  404097:	72 12                	jb     0x4040ab
  404099:	8b 50 fc             	mov    -0x4(%eax),%edx
  40409c:	83 c1 23             	add    $0x23,%ecx
  40409f:	2b c2                	sub    %edx,%eax
  4040a1:	83 c0 fc             	add    $0xfffffffc,%eax
  4040a4:	83 f8 1f             	cmp    $0x1f,%eax
  4040a7:	77 28                	ja     0x4040d1
  4040a9:	8b c2                	mov    %edx,%eax
  4040ab:	51                   	push   %ecx
  4040ac:	50                   	push   %eax
  4040ad:	e8 a5 f1 ff ff       	call   0x403257
  4040b2:	83 c4 08             	add    $0x8,%esp
  4040b5:	c7 05 98 74 40 00 00 	movl   $0x0,0x407498
  4040bc:	00 00 00 
  4040bf:	c7 05 9c 74 40 00 0f 	movl   $0xf,0x40749c
  4040c6:	00 00 00 
  4040c9:	c6 05 88 74 40 00 00 	movb   $0x0,0x407488
  4040d0:	c3                   	ret
  4040d1:	ff 25 18 51 40 00    	jmp    *0x405118
  4040d7:	b9 cc 70 40 00       	mov    $0x4070cc,%ecx
  4040dc:	e9 94 ee ff ff       	jmp    0x402f75
